

Microchip Technology PIC PRO Macro Assembler V1.34 build -361300703 
                                                                                               Thu Jun 25 15:32:05 2015

Microchip Technology Omniscient Code Generator (PRO mode) build 201502162209
     1                           	processor	16F1507
     2                           	opt	pw 120
     3                           	opt	pm
     4                           	psect	nvBANK0,global,class=BANK0,space=1,delta=1
     5                           	psect	cinit,global,class=CODE,merge=1,delta=2
     6                           	psect	bitbssBANK0,global,bit,class=BANK0,space=1,delta=1
     7                           	psect	bssBANK0,global,class=BANK0,space=1,delta=1
     8                           	psect	cstackCOMMON,global,class=COMMON,space=1,delta=1
     9                           	psect	cstackBANK0,global,class=BANK0,space=1,delta=1
    10                           	psect	maintext,global,class=CODE,merge=1,split=1,delta=2
    11                           	psect	text1,local,class=CODE,merge=1,delta=2
    12                           	psect	text2,local,class=CODE,merge=1,delta=2
    13                           	psect	swtext1,local,class=CONST,delta=2
    14                           	psect	text3,local,class=CODE,merge=1,delta=2
    15                           	psect	text4,local,class=CODE,merge=1,delta=2
    16                           	psect	text5,local,class=CODE,merge=1,delta=2
    17                           	psect	text6,local,class=CODE,merge=1,delta=2
    18                           	psect	text7,local,class=CODE,merge=1,delta=2
    19                           	psect	text8,local,class=CODE,merge=1,delta=2
    20                           	psect	text9,local,class=CODE,merge=1,delta=2
    21                           	psect	text10,local,class=CODE,merge=1,delta=2
    22                           	psect	text11,local,class=CODE,merge=1,delta=2
    23                           	psect	text12,local,class=CODE,merge=1,delta=2
    24                           	psect	text13,local,class=CODE,merge=1,delta=2
    25                           	psect	text14,local,class=CODE,merge=1,delta=2
    26                           	psect	text15,local,class=CODE,merge=1,delta=2
    27                           	psect	text16,local,class=CODE,merge=1,delta=2
    28                           	psect	text17,local,class=CODE,merge=1,delta=2
    29                           	psect	text18,local,class=CODE,merge=1,delta=2
    30                           	psect	text19,local,class=CODE,merge=1,delta=2
    31                           	psect	text20,local,class=CODE,merge=1,delta=2
    32                           	psect	text21,local,class=CODE,merge=1,delta=2
    33                           	psect	text22,local,class=CODE,merge=1,delta=2
    34                           	psect	text23,local,class=CODE,merge=1,delta=2
    35                           	psect	text24,local,class=CODE,merge=1,delta=2
    36                           	psect	text25,local,class=CODE,merge=1,delta=2
    37                           	psect	text26,local,class=CODE,merge=1,delta=2
    38                           	psect	text27,local,class=CODE,merge=1,delta=2
    39                           	psect	text28,local,class=CODE,merge=1,delta=2
    40                           	psect	intentry,global,class=CODE,delta=2
    41                           	psect	text30,local,class=CODE,merge=1,delta=2
    42                           	psect	text31,local,class=CODE,merge=1,delta=2
    43                           	psect	text32,local,class=CODE,merge=1,delta=2
    44                           	psect	pa_nodes,global,class=CODE,delta=2
    45                           	dabs	1,0x7E,2
    46  0000                     	;# 
    47  0001                     	;# 
    48  0002                     	;# 
    49  0003                     	;# 
    50  0004                     	;# 
    51  0005                     	;# 
    52  0006                     	;# 
    53  0007                     	;# 
    54  0008                     	;# 
    55  0009                     	;# 
    56  000A                     	;# 
    57  000B                     	;# 
    58  000C                     	;# 
    59  000D                     	;# 
    60  000E                     	;# 
    61  0011                     	;# 
    62  0012                     	;# 
    63  0013                     	;# 
    64  0015                     	;# 
    65  0016                     	;# 
    66  0016                     	;# 
    67  0017                     	;# 
    68  0018                     	;# 
    69  0019                     	;# 
    70  001A                     	;# 
    71  001B                     	;# 
    72  001C                     	;# 
    73  008C                     	;# 
    74  008D                     	;# 
    75  008E                     	;# 
    76  0091                     	;# 
    77  0092                     	;# 
    78  0093                     	;# 
    79  0095                     	;# 
    80  0096                     	;# 
    81  0097                     	;# 
    82  0099                     	;# 
    83  009A                     	;# 
    84  009B                     	;# 
    85  009B                     	;# 
    86  009C                     	;# 
    87  009D                     	;# 
    88  009E                     	;# 
    89  009F                     	;# 
    90  010C                     	;# 
    91  010D                     	;# 
    92  010E                     	;# 
    93  0116                     	;# 
    94  0117                     	;# 
    95  011D                     	;# 
    96  018C                     	;# 
    97  018D                     	;# 
    98  018E                     	;# 
    99  0191                     	;# 
   100  0191                     	;# 
   101  0192                     	;# 
   102  0193                     	;# 
   103  0193                     	;# 
   104  0194                     	;# 
   105  0195                     	;# 
   106  0196                     	;# 
   107  0197                     	;# 
   108  020C                     	;# 
   109  020D                     	;# 
   110  0391                     	;# 
   111  0392                     	;# 
   112  0393                     	;# 
   113  0394                     	;# 
   114  0395                     	;# 
   115  0396                     	;# 
   116  0498                     	;# 
   117  0498                     	;# 
   118  0499                     	;# 
   119  049A                     	;# 
   120  049B                     	;# 
   121  049B                     	;# 
   122  049C                     	;# 
   123  049E                     	;# 
   124  049F                     	;# 
   125  0611                     	;# 
   126  0612                     	;# 
   127  0613                     	;# 
   128  0613                     	;# 
   129  0614                     	;# 
   130  0615                     	;# 
   131  0616                     	;# 
   132  0616                     	;# 
   133  0617                     	;# 
   134  0618                     	;# 
   135  0619                     	;# 
   136  0619                     	;# 
   137  061A                     	;# 
   138  061B                     	;# 
   139  061C                     	;# 
   140  061C                     	;# 
   141  0691                     	;# 
   142  0692                     	;# 
   143  0693                     	;# 
   144  0694                     	;# 
   145  0695                     	;# 
   146  0F0F                     	;# 
   147  0F10                     	;# 
   148  0F11                     	;# 
   149  0F12                     	;# 
   150  0F13                     	;# 
   151  0F14                     	;# 
   152  0F15                     	;# 
   153  0F16                     	;# 
   154  0F17                     	;# 
   155  0F18                     	;# 
   156  0F19                     	;# 
   157  0F1A                     	;# 
   158  0F1B                     	;# 
   159  0F1C                     	;# 
   160  0F1D                     	;# 
   161  0F1E                     	;# 
   162  0F1F                     	;# 
   163  0FE3                     	;# 
   164  0FE4                     	;# 
   165  0FE5                     	;# 
   166  0FE6                     	;# 
   167  0FE7                     	;# 
   168  0FE8                     	;# 
   169  0FE9                     	;# 
   170  0FEA                     	;# 
   171  0FEB                     	;# 
   172  0FED                     	;# 
   173  0FEE                     	;# 
   174  0FEF                     	;# 
   175  0000                     	;# 
   176  0001                     	;# 
   177  0002                     	;# 
   178  0003                     	;# 
   179  0004                     	;# 
   180  0005                     	;# 
   181  0006                     	;# 
   182  0007                     	;# 
   183  0008                     	;# 
   184  0009                     	;# 
   185  000A                     	;# 
   186  000B                     	;# 
   187  000C                     	;# 
   188  000D                     	;# 
   189  000E                     	;# 
   190  0011                     	;# 
   191  0012                     	;# 
   192  0013                     	;# 
   193  0015                     	;# 
   194  0016                     	;# 
   195  0016                     	;# 
   196  0017                     	;# 
   197  0018                     	;# 
   198  0019                     	;# 
   199  001A                     	;# 
   200  001B                     	;# 
   201  001C                     	;# 
   202  008C                     	;# 
   203  008D                     	;# 
   204  008E                     	;# 
   205  0091                     	;# 
   206  0092                     	;# 
   207  0093                     	;# 
   208  0095                     	;# 
   209  0096                     	;# 
   210  0097                     	;# 
   211  0099                     	;# 
   212  009A                     	;# 
   213  009B                     	;# 
   214  009B                     	;# 
   215  009C                     	;# 
   216  009D                     	;# 
   217  009E                     	;# 
   218  009F                     	;# 
   219  010C                     	;# 
   220  010D                     	;# 
   221  010E                     	;# 
   222  0116                     	;# 
   223  0117                     	;# 
   224  011D                     	;# 
   225  018C                     	;# 
   226  018D                     	;# 
   227  018E                     	;# 
   228  0191                     	;# 
   229  0191                     	;# 
   230  0192                     	;# 
   231  0193                     	;# 
   232  0193                     	;# 
   233  0194                     	;# 
   234  0195                     	;# 
   235  0196                     	;# 
   236  0197                     	;# 
   237  020C                     	;# 
   238  020D                     	;# 
   239  0391                     	;# 
   240  0392                     	;# 
   241  0393                     	;# 
   242  0394                     	;# 
   243  0395                     	;# 
   244  0396                     	;# 
   245  0498                     	;# 
   246  0498                     	;# 
   247  0499                     	;# 
   248  049A                     	;# 
   249  049B                     	;# 
   250  049B                     	;# 
   251  049C                     	;# 
   252  049E                     	;# 
   253  049F                     	;# 
   254  0611                     	;# 
   255  0612                     	;# 
   256  0613                     	;# 
   257  0613                     	;# 
   258  0614                     	;# 
   259  0615                     	;# 
   260  0616                     	;# 
   261  0616                     	;# 
   262  0617                     	;# 
   263  0618                     	;# 
   264  0619                     	;# 
   265  0619                     	;# 
   266  061A                     	;# 
   267  061B                     	;# 
   268  061C                     	;# 
   269  061C                     	;# 
   270  0691                     	;# 
   271  0692                     	;# 
   272  0693                     	;# 
   273  0694                     	;# 
   274  0695                     	;# 
   275  0F0F                     	;# 
   276  0F10                     	;# 
   277  0F11                     	;# 
   278  0F12                     	;# 
   279  0F13                     	;# 
   280  0F14                     	;# 
   281  0F15                     	;# 
   282  0F16                     	;# 
   283  0F17                     	;# 
   284  0F18                     	;# 
   285  0F19                     	;# 
   286  0F1A                     	;# 
   287  0F1B                     	;# 
   288  0F1C                     	;# 
   289  0F1D                     	;# 
   290  0F1E                     	;# 
   291  0F1F                     	;# 
   292  0FE3                     	;# 
   293  0FE4                     	;# 
   294  0FE5                     	;# 
   295  0FE6                     	;# 
   296  0FE7                     	;# 
   297  0FE8                     	;# 
   298  0FE9                     	;# 
   299  0FEA                     	;# 
   300  0FEB                     	;# 
   301  0FED                     	;# 
   302  0FEE                     	;# 
   303  0FEF                     	;# 
   304  0000                     	;# 
   305  0001                     	;# 
   306  0002                     	;# 
   307  0003                     	;# 
   308  0004                     	;# 
   309  0005                     	;# 
   310  0006                     	;# 
   311  0007                     	;# 
   312  0008                     	;# 
   313  0009                     	;# 
   314  000A                     	;# 
   315  000B                     	;# 
   316  000C                     	;# 
   317  000D                     	;# 
   318  000E                     	;# 
   319  0011                     	;# 
   320  0012                     	;# 
   321  0013                     	;# 
   322  0015                     	;# 
   323  0016                     	;# 
   324  0016                     	;# 
   325  0017                     	;# 
   326  0018                     	;# 
   327  0019                     	;# 
   328  001A                     	;# 
   329  001B                     	;# 
   330  001C                     	;# 
   331  008C                     	;# 
   332  008D                     	;# 
   333  008E                     	;# 
   334  0091                     	;# 
   335  0092                     	;# 
   336  0093                     	;# 
   337  0095                     	;# 
   338  0096                     	;# 
   339  0097                     	;# 
   340  0099                     	;# 
   341  009A                     	;# 
   342  009B                     	;# 
   343  009B                     	;# 
   344  009C                     	;# 
   345  009D                     	;# 
   346  009E                     	;# 
   347  009F                     	;# 
   348  010C                     	;# 
   349  010D                     	;# 
   350  010E                     	;# 
   351  0116                     	;# 
   352  0117                     	;# 
   353  011D                     	;# 
   354  018C                     	;# 
   355  018D                     	;# 
   356  018E                     	;# 
   357  0191                     	;# 
   358  0191                     	;# 
   359  0192                     	;# 
   360  0193                     	;# 
   361  0193                     	;# 
   362  0194                     	;# 
   363  0195                     	;# 
   364  0196                     	;# 
   365  0197                     	;# 
   366  020C                     	;# 
   367  020D                     	;# 
   368  0391                     	;# 
   369  0392                     	;# 
   370  0393                     	;# 
   371  0394                     	;# 
   372  0395                     	;# 
   373  0396                     	;# 
   374  0498                     	;# 
   375  0498                     	;# 
   376  0499                     	;# 
   377  049A                     	;# 
   378  049B                     	;# 
   379  049B                     	;# 
   380  049C                     	;# 
   381  049E                     	;# 
   382  049F                     	;# 
   383  0611                     	;# 
   384  0612                     	;# 
   385  0613                     	;# 
   386  0613                     	;# 
   387  0614                     	;# 
   388  0615                     	;# 
   389  0616                     	;# 
   390  0616                     	;# 
   391  0617                     	;# 
   392  0618                     	;# 
   393  0619                     	;# 
   394  0619                     	;# 
   395  061A                     	;# 
   396  061B                     	;# 
   397  061C                     	;# 
   398  061C                     	;# 
   399  0691                     	;# 
   400  0692                     	;# 
   401  0693                     	;# 
   402  0694                     	;# 
   403  0695                     	;# 
   404  0F0F                     	;# 
   405  0F10                     	;# 
   406  0F11                     	;# 
   407  0F12                     	;# 
   408  0F13                     	;# 
   409  0F14                     	;# 
   410  0F15                     	;# 
   411  0F16                     	;# 
   412  0F17                     	;# 
   413  0F18                     	;# 
   414  0F19                     	;# 
   415  0F1A                     	;# 
   416  0F1B                     	;# 
   417  0F1C                     	;# 
   418  0F1D                     	;# 
   419  0F1E                     	;# 
   420  0F1F                     	;# 
   421  0FE3                     	;# 
   422  0FE4                     	;# 
   423  0FE5                     	;# 
   424  0FE6                     	;# 
   425  0FE7                     	;# 
   426  0FE8                     	;# 
   427  0FE9                     	;# 
   428  0FEA                     	;# 
   429  0FEB                     	;# 
   430  0FED                     	;# 
   431  0FEE                     	;# 
   432  0FEF                     	;# 
   433  0000                     	;# 
   434  0001                     	;# 
   435  0002                     	;# 
   436  0003                     	;# 
   437  0004                     	;# 
   438  0005                     	;# 
   439  0006                     	;# 
   440  0007                     	;# 
   441  0008                     	;# 
   442  0009                     	;# 
   443  000A                     	;# 
   444  000B                     	;# 
   445  000C                     	;# 
   446  000D                     	;# 
   447  000E                     	;# 
   448  0011                     	;# 
   449  0012                     	;# 
   450  0013                     	;# 
   451  0015                     	;# 
   452  0016                     	;# 
   453  0016                     	;# 
   454  0017                     	;# 
   455  0018                     	;# 
   456  0019                     	;# 
   457  001A                     	;# 
   458  001B                     	;# 
   459  001C                     	;# 
   460  008C                     	;# 
   461  008D                     	;# 
   462  008E                     	;# 
   463  0091                     	;# 
   464  0092                     	;# 
   465  0093                     	;# 
   466  0095                     	;# 
   467  0096                     	;# 
   468  0097                     	;# 
   469  0099                     	;# 
   470  009A                     	;# 
   471  009B                     	;# 
   472  009B                     	;# 
   473  009C                     	;# 
   474  009D                     	;# 
   475  009E                     	;# 
   476  009F                     	;# 
   477  010C                     	;# 
   478  010D                     	;# 
   479  010E                     	;# 
   480  0116                     	;# 
   481  0117                     	;# 
   482  011D                     	;# 
   483  018C                     	;# 
   484  018D                     	;# 
   485  018E                     	;# 
   486  0191                     	;# 
   487  0191                     	;# 
   488  0192                     	;# 
   489  0193                     	;# 
   490  0193                     	;# 
   491  0194                     	;# 
   492  0195                     	;# 
   493  0196                     	;# 
   494  0197                     	;# 
   495  020C                     	;# 
   496  020D                     	;# 
   497  0391                     	;# 
   498  0392                     	;# 
   499  0393                     	;# 
   500  0394                     	;# 
   501  0395                     	;# 
   502  0396                     	;# 
   503  0498                     	;# 
   504  0498                     	;# 
   505  0499                     	;# 
   506  049A                     	;# 
   507  049B                     	;# 
   508  049B                     	;# 
   509  049C                     	;# 
   510  049E                     	;# 
   511  049F                     	;# 
   512  0611                     	;# 
   513  0612                     	;# 
   514  0613                     	;# 
   515  0613                     	;# 
   516  0614                     	;# 
   517  0615                     	;# 
   518  0616                     	;# 
   519  0616                     	;# 
   520  0617                     	;# 
   521  0618                     	;# 
   522  0619                     	;# 
   523  0619                     	;# 
   524  061A                     	;# 
   525  061B                     	;# 
   526  061C                     	;# 
   527  061C                     	;# 
   528  0691                     	;# 
   529  0692                     	;# 
   530  0693                     	;# 
   531  0694                     	;# 
   532  0695                     	;# 
   533  0F0F                     	;# 
   534  0F10                     	;# 
   535  0F11                     	;# 
   536  0F12                     	;# 
   537  0F13                     	;# 
   538  0F14                     	;# 
   539  0F15                     	;# 
   540  0F16                     	;# 
   541  0F17                     	;# 
   542  0F18                     	;# 
   543  0F19                     	;# 
   544  0F1A                     	;# 
   545  0F1B                     	;# 
   546  0F1C                     	;# 
   547  0F1D                     	;# 
   548  0F1E                     	;# 
   549  0F1F                     	;# 
   550  0FE3                     	;# 
   551  0FE4                     	;# 
   552  0FE5                     	;# 
   553  0FE6                     	;# 
   554  0FE7                     	;# 
   555  0FE8                     	;# 
   556  0FE9                     	;# 
   557  0FEA                     	;# 
   558  0FEB                     	;# 
   559  0FED                     	;# 
   560  0FEE                     	;# 
   561  0FEF                     	;# 
   562  0000                     	;# 
   563  0001                     	;# 
   564  0002                     	;# 
   565  0003                     	;# 
   566  0004                     	;# 
   567  0005                     	;# 
   568  0006                     	;# 
   569  0007                     	;# 
   570  0008                     	;# 
   571  0009                     	;# 
   572  000A                     	;# 
   573  000B                     	;# 
   574  000C                     	;# 
   575  000D                     	;# 
   576  000E                     	;# 
   577  0011                     	;# 
   578  0012                     	;# 
   579  0013                     	;# 
   580  0015                     	;# 
   581  0016                     	;# 
   582  0016                     	;# 
   583  0017                     	;# 
   584  0018                     	;# 
   585  0019                     	;# 
   586  001A                     	;# 
   587  001B                     	;# 
   588  001C                     	;# 
   589  008C                     	;# 
   590  008D                     	;# 
   591  008E                     	;# 
   592  0091                     	;# 
   593  0092                     	;# 
   594  0093                     	;# 
   595  0095                     	;# 
   596  0096                     	;# 
   597  0097                     	;# 
   598  0099                     	;# 
   599  009A                     	;# 
   600  009B                     	;# 
   601  009B                     	;# 
   602  009C                     	;# 
   603  009D                     	;# 
   604  009E                     	;# 
   605  009F                     	;# 
   606  010C                     	;# 
   607  010D                     	;# 
   608  010E                     	;# 
   609  0116                     	;# 
   610  0117                     	;# 
   611  011D                     	;# 
   612  018C                     	;# 
   613  018D                     	;# 
   614  018E                     	;# 
   615  0191                     	;# 
   616  0191                     	;# 
   617  0192                     	;# 
   618  0193                     	;# 
   619  0193                     	;# 
   620  0194                     	;# 
   621  0195                     	;# 
   622  0196                     	;# 
   623  0197                     	;# 
   624  020C                     	;# 
   625  020D                     	;# 
   626  0391                     	;# 
   627  0392                     	;# 
   628  0393                     	;# 
   629  0394                     	;# 
   630  0395                     	;# 
   631  0396                     	;# 
   632  0498                     	;# 
   633  0498                     	;# 
   634  0499                     	;# 
   635  049A                     	;# 
   636  049B                     	;# 
   637  049B                     	;# 
   638  049C                     	;# 
   639  049E                     	;# 
   640  049F                     	;# 
   641  0611                     	;# 
   642  0612                     	;# 
   643  0613                     	;# 
   644  0613                     	;# 
   645  0614                     	;# 
   646  0615                     	;# 
   647  0616                     	;# 
   648  0616                     	;# 
   649  0617                     	;# 
   650  0618                     	;# 
   651  0619                     	;# 
   652  0619                     	;# 
   653  061A                     	;# 
   654  061B                     	;# 
   655  061C                     	;# 
   656  061C                     	;# 
   657  0691                     	;# 
   658  0692                     	;# 
   659  0693                     	;# 
   660  0694                     	;# 
   661  0695                     	;# 
   662  0F0F                     	;# 
   663  0F10                     	;# 
   664  0F11                     	;# 
   665  0F12                     	;# 
   666  0F13                     	;# 
   667  0F14                     	;# 
   668  0F15                     	;# 
   669  0F16                     	;# 
   670  0F17                     	;# 
   671  0F18                     	;# 
   672  0F19                     	;# 
   673  0F1A                     	;# 
   674  0F1B                     	;# 
   675  0F1C                     	;# 
   676  0F1D                     	;# 
   677  0F1E                     	;# 
   678  0F1F                     	;# 
   679  0FE3                     	;# 
   680  0FE4                     	;# 
   681  0FE5                     	;# 
   682  0FE6                     	;# 
   683  0FE7                     	;# 
   684  0FE8                     	;# 
   685  0FE9                     	;# 
   686  0FEA                     	;# 
   687  0FEB                     	;# 
   688  0FED                     	;# 
   689  0FEE                     	;# 
   690  0FEF                     	;# 
   691  0000                     	;# 
   692  0001                     	;# 
   693  0002                     	;# 
   694  0003                     	;# 
   695  0004                     	;# 
   696  0005                     	;# 
   697  0006                     	;# 
   698  0007                     	;# 
   699  0008                     	;# 
   700  0009                     	;# 
   701  000A                     	;# 
   702  000B                     	;# 
   703  000C                     	;# 
   704  000D                     	;# 
   705  000E                     	;# 
   706  0011                     	;# 
   707  0012                     	;# 
   708  0013                     	;# 
   709  0015                     	;# 
   710  0016                     	;# 
   711  0016                     	;# 
   712  0017                     	;# 
   713  0018                     	;# 
   714  0019                     	;# 
   715  001A                     	;# 
   716  001B                     	;# 
   717  001C                     	;# 
   718  008C                     	;# 
   719  008D                     	;# 
   720  008E                     	;# 
   721  0091                     	;# 
   722  0092                     	;# 
   723  0093                     	;# 
   724  0095                     	;# 
   725  0096                     	;# 
   726  0097                     	;# 
   727  0099                     	;# 
   728  009A                     	;# 
   729  009B                     	;# 
   730  009B                     	;# 
   731  009C                     	;# 
   732  009D                     	;# 
   733  009E                     	;# 
   734  009F                     	;# 
   735  010C                     	;# 
   736  010D                     	;# 
   737  010E                     	;# 
   738  0116                     	;# 
   739  0117                     	;# 
   740  011D                     	;# 
   741  018C                     	;# 
   742  018D                     	;# 
   743  018E                     	;# 
   744  0191                     	;# 
   745  0191                     	;# 
   746  0192                     	;# 
   747  0193                     	;# 
   748  0193                     	;# 
   749  0194                     	;# 
   750  0195                     	;# 
   751  0196                     	;# 
   752  0197                     	;# 
   753  020C                     	;# 
   754  020D                     	;# 
   755  0391                     	;# 
   756  0392                     	;# 
   757  0393                     	;# 
   758  0394                     	;# 
   759  0395                     	;# 
   760  0396                     	;# 
   761  0498                     	;# 
   762  0498                     	;# 
   763  0499                     	;# 
   764  049A                     	;# 
   765  049B                     	;# 
   766  049B                     	;# 
   767  049C                     	;# 
   768  049E                     	;# 
   769  049F                     	;# 
   770  0611                     	;# 
   771  0612                     	;# 
   772  0613                     	;# 
   773  0613                     	;# 
   774  0614                     	;# 
   775  0615                     	;# 
   776  0616                     	;# 
   777  0616                     	;# 
   778  0617                     	;# 
   779  0618                     	;# 
   780  0619                     	;# 
   781  0619                     	;# 
   782  061A                     	;# 
   783  061B                     	;# 
   784  061C                     	;# 
   785  061C                     	;# 
   786  0691                     	;# 
   787  0692                     	;# 
   788  0693                     	;# 
   789  0694                     	;# 
   790  0695                     	;# 
   791  0F0F                     	;# 
   792  0F10                     	;# 
   793  0F11                     	;# 
   794  0F12                     	;# 
   795  0F13                     	;# 
   796  0F14                     	;# 
   797  0F15                     	;# 
   798  0F16                     	;# 
   799  0F17                     	;# 
   800  0F18                     	;# 
   801  0F19                     	;# 
   802  0F1A                     	;# 
   803  0F1B                     	;# 
   804  0F1C                     	;# 
   805  0F1D                     	;# 
   806  0F1E                     	;# 
   807  0F1F                     	;# 
   808  0FE3                     	;# 
   809  0FE4                     	;# 
   810  0FE5                     	;# 
   811  0FE6                     	;# 
   812  0FE7                     	;# 
   813  0FE8                     	;# 
   814  0FE9                     	;# 
   815  0FEA                     	;# 
   816  0FEB                     	;# 
   817  0FED                     	;# 
   818  0FEE                     	;# 
   819  0FEF                     	;# 
   820  0000                     	;# 
   821  0001                     	;# 
   822  0002                     	;# 
   823  0003                     	;# 
   824  0004                     	;# 
   825  0005                     	;# 
   826  0006                     	;# 
   827  0007                     	;# 
   828  0008                     	;# 
   829  0009                     	;# 
   830  000A                     	;# 
   831  000B                     	;# 
   832  000C                     	;# 
   833  000D                     	;# 
   834  000E                     	;# 
   835  0011                     	;# 
   836  0012                     	;# 
   837  0013                     	;# 
   838  0015                     	;# 
   839  0016                     	;# 
   840  0016                     	;# 
   841  0017                     	;# 
   842  0018                     	;# 
   843  0019                     	;# 
   844  001A                     	;# 
   845  001B                     	;# 
   846  001C                     	;# 
   847  008C                     	;# 
   848  008D                     	;# 
   849  008E                     	;# 
   850  0091                     	;# 
   851  0092                     	;# 
   852  0093                     	;# 
   853  0095                     	;# 
   854  0096                     	;# 
   855  0097                     	;# 
   856  0099                     	;# 
   857  009A                     	;# 
   858  009B                     	;# 
   859  009B                     	;# 
   860  009C                     	;# 
   861  009D                     	;# 
   862  009E                     	;# 
   863  009F                     	;# 
   864  010C                     	;# 
   865  010D                     	;# 
   866  010E                     	;# 
   867  0116                     	;# 
   868  0117                     	;# 
   869  011D                     	;# 
   870  018C                     	;# 
   871  018D                     	;# 
   872  018E                     	;# 
   873  0191                     	;# 
   874  0191                     	;# 
   875  0192                     	;# 
   876  0193                     	;# 
   877  0193                     	;# 
   878  0194                     	;# 
   879  0195                     	;# 
   880  0196                     	;# 
   881  0197                     	;# 
   882  020C                     	;# 
   883  020D                     	;# 
   884  0391                     	;# 
   885  0392                     	;# 
   886  0393                     	;# 
   887  0394                     	;# 
   888  0395                     	;# 
   889  0396                     	;# 
   890  0498                     	;# 
   891  0498                     	;# 
   892  0499                     	;# 
   893  049A                     	;# 
   894  049B                     	;# 
   895  049B                     	;# 
   896  049C                     	;# 
   897  049E                     	;# 
   898  049F                     	;# 
   899  0611                     	;# 
   900  0612                     	;# 
   901  0613                     	;# 
   902  0613                     	;# 
   903  0614                     	;# 
   904  0615                     	;# 
   905  0616                     	;# 
   906  0616                     	;# 
   907  0617                     	;# 
   908  0618                     	;# 
   909  0619                     	;# 
   910  0619                     	;# 
   911  061A                     	;# 
   912  061B                     	;# 
   913  061C                     	;# 
   914  061C                     	;# 
   915  0691                     	;# 
   916  0692                     	;# 
   917  0693                     	;# 
   918  0694                     	;# 
   919  0695                     	;# 
   920  0F0F                     	;# 
   921  0F10                     	;# 
   922  0F11                     	;# 
   923  0F12                     	;# 
   924  0F13                     	;# 
   925  0F14                     	;# 
   926  0F15                     	;# 
   927  0F16                     	;# 
   928  0F17                     	;# 
   929  0F18                     	;# 
   930  0F19                     	;# 
   931  0F1A                     	;# 
   932  0F1B                     	;# 
   933  0F1C                     	;# 
   934  0F1D                     	;# 
   935  0F1E                     	;# 
   936  0F1F                     	;# 
   937  0FE3                     	;# 
   938  0FE4                     	;# 
   939  0FE5                     	;# 
   940  0FE6                     	;# 
   941  0FE7                     	;# 
   942  0FE8                     	;# 
   943  0FE9                     	;# 
   944  0FEA                     	;# 
   945  0FEB                     	;# 
   946  0FED                     	;# 
   947  0FEE                     	;# 
   948  0FEF                     	;# 
   949  0000                     	;# 
   950  0001                     	;# 
   951  0002                     	;# 
   952  0003                     	;# 
   953  0004                     	;# 
   954  0005                     	;# 
   955  0006                     	;# 
   956  0007                     	;# 
   957  0008                     	;# 
   958  0009                     	;# 
   959  000A                     	;# 
   960  000B                     	;# 
   961  000C                     	;# 
   962  000D                     	;# 
   963  000E                     	;# 
   964  0011                     	;# 
   965  0012                     	;# 
   966  0013                     	;# 
   967  0015                     	;# 
   968  0016                     	;# 
   969  0016                     	;# 
   970  0017                     	;# 
   971  0018                     	;# 
   972  0019                     	;# 
   973  001A                     	;# 
   974  001B                     	;# 
   975  001C                     	;# 
   976  008C                     	;# 
   977  008D                     	;# 
   978  008E                     	;# 
   979  0091                     	;# 
   980  0092                     	;# 
   981  0093                     	;# 
   982  0095                     	;# 
   983  0096                     	;# 
   984  0097                     	;# 
   985  0099                     	;# 
   986  009A                     	;# 
   987  009B                     	;# 
   988  009B                     	;# 
   989  009C                     	;# 
   990  009D                     	;# 
   991  009E                     	;# 
   992  009F                     	;# 
   993  010C                     	;# 
   994  010D                     	;# 
   995  010E                     	;# 
   996  0116                     	;# 
   997  0117                     	;# 
   998  011D                     	;# 
   999  018C                     	;# 
  1000  018D                     	;# 
  1001  018E                     	;# 
  1002  0191                     	;# 
  1003  0191                     	;# 
  1004  0192                     	;# 
  1005  0193                     	;# 
  1006  0193                     	;# 
  1007  0194                     	;# 
  1008  0195                     	;# 
  1009  0196                     	;# 
  1010  0197                     	;# 
  1011  020C                     	;# 
  1012  020D                     	;# 
  1013  0391                     	;# 
  1014  0392                     	;# 
  1015  0393                     	;# 
  1016  0394                     	;# 
  1017  0395                     	;# 
  1018  0396                     	;# 
  1019  0498                     	;# 
  1020  0498                     	;# 
  1021  0499                     	;# 
  1022  049A                     	;# 
  1023  049B                     	;# 
  1024  049B                     	;# 
  1025  049C                     	;# 
  1026  049E                     	;# 
  1027  049F                     	;# 
  1028  0611                     	;# 
  1029  0612                     	;# 
  1030  0613                     	;# 
  1031  0613                     	;# 
  1032  0614                     	;# 
  1033  0615                     	;# 
  1034  0616                     	;# 
  1035  0616                     	;# 
  1036  0617                     	;# 
  1037  0618                     	;# 
  1038  0619                     	;# 
  1039  0619                     	;# 
  1040  061A                     	;# 
  1041  061B                     	;# 
  1042  061C                     	;# 
  1043  061C                     	;# 
  1044  0691                     	;# 
  1045  0692                     	;# 
  1046  0693                     	;# 
  1047  0694                     	;# 
  1048  0695                     	;# 
  1049  0F0F                     	;# 
  1050  0F10                     	;# 
  1051  0F11                     	;# 
  1052  0F12                     	;# 
  1053  0F13                     	;# 
  1054  0F14                     	;# 
  1055  0F15                     	;# 
  1056  0F16                     	;# 
  1057  0F17                     	;# 
  1058  0F18                     	;# 
  1059  0F19                     	;# 
  1060  0F1A                     	;# 
  1061  0F1B                     	;# 
  1062  0F1C                     	;# 
  1063  0F1D                     	;# 
  1064  0F1E                     	;# 
  1065  0F1F                     	;# 
  1066  0FE3                     	;# 
  1067  0FE4                     	;# 
  1068  0FE5                     	;# 
  1069  0FE6                     	;# 
  1070  0FE7                     	;# 
  1071  0FE8                     	;# 
  1072  0FE9                     	;# 
  1073  0FEA                     	;# 
  1074  0FEB                     	;# 
  1075  0FED                     	;# 
  1076  0FEE                     	;# 
  1077  0FEF                     	;# 
  1078  0000                     	;# 
  1079  0001                     	;# 
  1080  0002                     	;# 
  1081  0003                     	;# 
  1082  0004                     	;# 
  1083  0005                     	;# 
  1084  0006                     	;# 
  1085  0007                     	;# 
  1086  0008                     	;# 
  1087  0009                     	;# 
  1088  000A                     	;# 
  1089  000B                     	;# 
  1090  000C                     	;# 
  1091  000D                     	;# 
  1092  000E                     	;# 
  1093  0011                     	;# 
  1094  0012                     	;# 
  1095  0013                     	;# 
  1096  0015                     	;# 
  1097  0016                     	;# 
  1098  0016                     	;# 
  1099  0017                     	;# 
  1100  0018                     	;# 
  1101  0019                     	;# 
  1102  001A                     	;# 
  1103  001B                     	;# 
  1104  001C                     	;# 
  1105  008C                     	;# 
  1106  008D                     	;# 
  1107  008E                     	;# 
  1108  0091                     	;# 
  1109  0092                     	;# 
  1110  0093                     	;# 
  1111  0095                     	;# 
  1112  0096                     	;# 
  1113  0097                     	;# 
  1114  0099                     	;# 
  1115  009A                     	;# 
  1116  009B                     	;# 
  1117  009B                     	;# 
  1118  009C                     	;# 
  1119  009D                     	;# 
  1120  009E                     	;# 
  1121  009F                     	;# 
  1122  010C                     	;# 
  1123  010D                     	;# 
  1124  010E                     	;# 
  1125  0116                     	;# 
  1126  0117                     	;# 
  1127  011D                     	;# 
  1128  018C                     	;# 
  1129  018D                     	;# 
  1130  018E                     	;# 
  1131  0191                     	;# 
  1132  0191                     	;# 
  1133  0192                     	;# 
  1134  0193                     	;# 
  1135  0193                     	;# 
  1136  0194                     	;# 
  1137  0195                     	;# 
  1138  0196                     	;# 
  1139  0197                     	;# 
  1140  020C                     	;# 
  1141  020D                     	;# 
  1142  0391                     	;# 
  1143  0392                     	;# 
  1144  0393                     	;# 
  1145  0394                     	;# 
  1146  0395                     	;# 
  1147  0396                     	;# 
  1148  0498                     	;# 
  1149  0498                     	;# 
  1150  0499                     	;# 
  1151  049A                     	;# 
  1152  049B                     	;# 
  1153  049B                     	;# 
  1154  049C                     	;# 
  1155  049E                     	;# 
  1156  049F                     	;# 
  1157  0611                     	;# 
  1158  0612                     	;# 
  1159  0613                     	;# 
  1160  0613                     	;# 
  1161  0614                     	;# 
  1162  0615                     	;# 
  1163  0616                     	;# 
  1164  0616                     	;# 
  1165  0617                     	;# 
  1166  0618                     	;# 
  1167  0619                     	;# 
  1168  0619                     	;# 
  1169  061A                     	;# 
  1170  061B                     	;# 
  1171  061C                     	;# 
  1172  061C                     	;# 
  1173  0691                     	;# 
  1174  0692                     	;# 
  1175  0693                     	;# 
  1176  0694                     	;# 
  1177  0695                     	;# 
  1178  0F0F                     	;# 
  1179  0F10                     	;# 
  1180  0F11                     	;# 
  1181  0F12                     	;# 
  1182  0F13                     	;# 
  1183  0F14                     	;# 
  1184  0F15                     	;# 
  1185  0F16                     	;# 
  1186  0F17                     	;# 
  1187  0F18                     	;# 
  1188  0F19                     	;# 
  1189  0F1A                     	;# 
  1190  0F1B                     	;# 
  1191  0F1C                     	;# 
  1192  0F1D                     	;# 
  1193  0F1E                     	;# 
  1194  0F1F                     	;# 
  1195  0FE3                     	;# 
  1196  0FE4                     	;# 
  1197  0FE5                     	;# 
  1198  0FE6                     	;# 
  1199  0FE7                     	;# 
  1200  0FE8                     	;# 
  1201  0FE9                     	;# 
  1202  0FEA                     	;# 
  1203  0FEB                     	;# 
  1204  0FED                     	;# 
  1205  0FEE                     	;# 
  1206  0FEF                     	;# 
  1207  0000                     	;# 
  1208  0001                     	;# 
  1209  0002                     	;# 
  1210  0003                     	;# 
  1211  0004                     	;# 
  1212  0005                     	;# 
  1213  0006                     	;# 
  1214  0007                     	;# 
  1215  0008                     	;# 
  1216  0009                     	;# 
  1217  000A                     	;# 
  1218  000B                     	;# 
  1219  000C                     	;# 
  1220  000D                     	;# 
  1221  000E                     	;# 
  1222  0011                     	;# 
  1223  0012                     	;# 
  1224  0013                     	;# 
  1225  0015                     	;# 
  1226  0016                     	;# 
  1227  0016                     	;# 
  1228  0017                     	;# 
  1229  0018                     	;# 
  1230  0019                     	;# 
  1231  001A                     	;# 
  1232  001B                     	;# 
  1233  001C                     	;# 
  1234  008C                     	;# 
  1235  008D                     	;# 
  1236  008E                     	;# 
  1237  0091                     	;# 
  1238  0092                     	;# 
  1239  0093                     	;# 
  1240  0095                     	;# 
  1241  0096                     	;# 
  1242  0097                     	;# 
  1243  0099                     	;# 
  1244  009A                     	;# 
  1245  009B                     	;# 
  1246  009B                     	;# 
  1247  009C                     	;# 
  1248  009D                     	;# 
  1249  009E                     	;# 
  1250  009F                     	;# 
  1251  010C                     	;# 
  1252  010D                     	;# 
  1253  010E                     	;# 
  1254  0116                     	;# 
  1255  0117                     	;# 
  1256  011D                     	;# 
  1257  018C                     	;# 
  1258  018D                     	;# 
  1259  018E                     	;# 
  1260  0191                     	;# 
  1261  0191                     	;# 
  1262  0192                     	;# 
  1263  0193                     	;# 
  1264  0193                     	;# 
  1265  0194                     	;# 
  1266  0195                     	;# 
  1267  0196                     	;# 
  1268  0197                     	;# 
  1269  020C                     	;# 
  1270  020D                     	;# 
  1271  0391                     	;# 
  1272  0392                     	;# 
  1273  0393                     	;# 
  1274  0394                     	;# 
  1275  0395                     	;# 
  1276  0396                     	;# 
  1277  0498                     	;# 
  1278  0498                     	;# 
  1279  0499                     	;# 
  1280  049A                     	;# 
  1281  049B                     	;# 
  1282  049B                     	;# 
  1283  049C                     	;# 
  1284  049E                     	;# 
  1285  049F                     	;# 
  1286  0611                     	;# 
  1287  0612                     	;# 
  1288  0613                     	;# 
  1289  0613                     	;# 
  1290  0614                     	;# 
  1291  0615                     	;# 
  1292  0616                     	;# 
  1293  0616                     	;# 
  1294  0617                     	;# 
  1295  0618                     	;# 
  1296  0619                     	;# 
  1297  0619                     	;# 
  1298  061A                     	;# 
  1299  061B                     	;# 
  1300  061C                     	;# 
  1301  061C                     	;# 
  1302  0691                     	;# 
  1303  0692                     	;# 
  1304  0693                     	;# 
  1305  0694                     	;# 
  1306  0695                     	;# 
  1307  0F0F                     	;# 
  1308  0F10                     	;# 
  1309  0F11                     	;# 
  1310  0F12                     	;# 
  1311  0F13                     	;# 
  1312  0F14                     	;# 
  1313  0F15                     	;# 
  1314  0F16                     	;# 
  1315  0F17                     	;# 
  1316  0F18                     	;# 
  1317  0F19                     	;# 
  1318  0F1A                     	;# 
  1319  0F1B                     	;# 
  1320  0F1C                     	;# 
  1321  0F1D                     	;# 
  1322  0F1E                     	;# 
  1323  0F1F                     	;# 
  1324  0FE3                     	;# 
  1325  0FE4                     	;# 
  1326  0FE5                     	;# 
  1327  0FE6                     	;# 
  1328  0FE7                     	;# 
  1329  0FE8                     	;# 
  1330  0FE9                     	;# 
  1331  0FEA                     	;# 
  1332  0FEB                     	;# 
  1333  0FED                     	;# 
  1334  0FEE                     	;# 
  1335  0FEF                     	;# 
  1336  0000                     	;# 
  1337  0001                     	;# 
  1338  0002                     	;# 
  1339  0003                     	;# 
  1340  0004                     	;# 
  1341  0005                     	;# 
  1342  0006                     	;# 
  1343  0007                     	;# 
  1344  0008                     	;# 
  1345  0009                     	;# 
  1346  000A                     	;# 
  1347  000B                     	;# 
  1348  000C                     	;# 
  1349  000D                     	;# 
  1350  000E                     	;# 
  1351  0011                     	;# 
  1352  0012                     	;# 
  1353  0013                     	;# 
  1354  0015                     	;# 
  1355  0016                     	;# 
  1356  0016                     	;# 
  1357  0017                     	;# 
  1358  0018                     	;# 
  1359  0019                     	;# 
  1360  001A                     	;# 
  1361  001B                     	;# 
  1362  001C                     	;# 
  1363  008C                     	;# 
  1364  008D                     	;# 
  1365  008E                     	;# 
  1366  0091                     	;# 
  1367  0092                     	;# 
  1368  0093                     	;# 
  1369  0095                     	;# 
  1370  0096                     	;# 
  1371  0097                     	;# 
  1372  0099                     	;# 
  1373  009A                     	;# 
  1374  009B                     	;# 
  1375  009B                     	;# 
  1376  009C                     	;# 
  1377  009D                     	;# 
  1378  009E                     	;# 
  1379  009F                     	;# 
  1380  010C                     	;# 
  1381  010D                     	;# 
  1382  010E                     	;# 
  1383  0116                     	;# 
  1384  0117                     	;# 
  1385  011D                     	;# 
  1386  018C                     	;# 
  1387  018D                     	;# 
  1388  018E                     	;# 
  1389  0191                     	;# 
  1390  0191                     	;# 
  1391  0192                     	;# 
  1392  0193                     	;# 
  1393  0193                     	;# 
  1394  0194                     	;# 
  1395  0195                     	;# 
  1396  0196                     	;# 
  1397  0197                     	;# 
  1398  020C                     	;# 
  1399  020D                     	;# 
  1400  0391                     	;# 
  1401  0392                     	;# 
  1402  0393                     	;# 
  1403  0394                     	;# 
  1404  0395                     	;# 
  1405  0396                     	;# 
  1406  0498                     	;# 
  1407  0498                     	;# 
  1408  0499                     	;# 
  1409  049A                     	;# 
  1410  049B                     	;# 
  1411  049B                     	;# 
  1412  049C                     	;# 
  1413  049E                     	;# 
  1414  049F                     	;# 
  1415  0611                     	;# 
  1416  0612                     	;# 
  1417  0613                     	;# 
  1418  0613                     	;# 
  1419  0614                     	;# 
  1420  0615                     	;# 
  1421  0616                     	;# 
  1422  0616                     	;# 
  1423  0617                     	;# 
  1424  0618                     	;# 
  1425  0619                     	;# 
  1426  0619                     	;# 
  1427  061A                     	;# 
  1428  061B                     	;# 
  1429  061C                     	;# 
  1430  061C                     	;# 
  1431  0691                     	;# 
  1432  0692                     	;# 
  1433  0693                     	;# 
  1434  0694                     	;# 
  1435  0695                     	;# 
  1436  0F0F                     	;# 
  1437  0F10                     	;# 
  1438  0F11                     	;# 
  1439  0F12                     	;# 
  1440  0F13                     	;# 
  1441  0F14                     	;# 
  1442  0F15                     	;# 
  1443  0F16                     	;# 
  1444  0F17                     	;# 
  1445  0F18                     	;# 
  1446  0F19                     	;# 
  1447  0F1A                     	;# 
  1448  0F1B                     	;# 
  1449  0F1C                     	;# 
  1450  0F1D                     	;# 
  1451  0F1E                     	;# 
  1452  0F1F                     	;# 
  1453  0FE3                     	;# 
  1454  0FE4                     	;# 
  1455  0FE5                     	;# 
  1456  0FE6                     	;# 
  1457  0FE7                     	;# 
  1458  0FE8                     	;# 
  1459  0FE9                     	;# 
  1460  0FEA                     	;# 
  1461  0FEB                     	;# 
  1462  0FED                     	;# 
  1463  0FEE                     	;# 
  1464  0FEF                     	;# 
  1465                           
  1466                           	psect	nvBANK0
  1467  0064                     __pnvBANK0:	
  1468  0064                     _timer1ReloadVal:	
  1469  0064                     	ds	2
  1470  0066                     _timer0ReloadVal:	
  1471  0066                     	ds	1
  1472  000B                     _INTCONbits	set	11
  1473  0011                     _PIR1bits	set	17
  1474  001B                     _PR2	set	27
  1475  0018                     _T1CON	set	24
  1476  0018                     _T1CONbits	set	24
  1477  0019                     _T1GCON	set	25
  1478  001C                     _T2CON	set	28
  1479  001C                     _T2CONbits	set	28
  1480  0015                     _TMR0	set	21
  1481  0017                     _TMR1H	set	23
  1482  0016                     _TMR1L	set	22
  1483  001A                     _TMR2	set	26
  1484  0064                     _RA4	set	100
  1485  006C                     _RB4	set	108
  1486  006D                     _RB5	set	109
  1487  0073                     _RC3	set	115
  1488  009D                     _ADCON0	set	157
  1489  009D                     _ADCON0bits	set	157
  1490  009E                     _ADCON1	set	158
  1491  009F                     _ADCON2	set	159
  1492  009C                     _ADRESH	set	156
  1493  009B                     _ADRESL	set	155
  1494  0095                     _OPTION_REG	set	149
  1495  0095                     _OPTION_REGbits	set	149
  1496  0099                     _OSCCON	set	153
  1497  009A                     _OSCSTAT	set	154
  1498  0091                     _PIE1bits	set	145
  1499  008C                     _TRISA	set	140
  1500  008D                     _TRISB	set	141
  1501  008E                     _TRISC	set	142
  1502  0097                     _WDTCON	set	151
  1503  011D                     _APFCON	set	285
  1504  0117                     _FVRCON	set	279
  1505  010C                     _LATA	set	268
  1506  010D                     _LATB	set	269
  1507  010E                     _LATC	set	270
  1508  0865                     _LATA5	set	2149
  1509  086E                     _LATB6	set	2158
  1510  086F                     _LATB7	set	2159
  1511  0871                     _LATC1	set	2161
  1512  0872                     _LATC2	set	2162
  1513  0873                     _LATC3	set	2163
  1514  0874                     _LATC4	set	2164
  1515  0875                     _LATC5	set	2165
  1516  0877                     _LATC7	set	2167
  1517  018C                     _ANSELA	set	396
  1518  018D                     _ANSELB	set	397
  1519  018E                     _ANSELC	set	398
  1520  0197                     _VREGCON	set	407
  1521  020C                     _WPUA	set	524
  1522  020D                     _WPUB	set	525
  1523  1C9A                     _IOCAF2	set	7322
  1524  1C92                     _IOCAN2	set	7314
  1525  1C8A                     _IOCAP2	set	7306
  1526  0613                     _PWM1CON	set	1555
  1527  0612                     _PWM1DCH	set	1554
  1528  0611                     _PWM1DCL	set	1553
  1529  0616                     _PWM2CON	set	1558
  1530  0615                     _PWM2DCH	set	1557
  1531  0614                     _PWM2DCL	set	1556
  1532                           
  1533                           ; #config settings
  1534  0000                     
  1535                           	psect	cinit
  1536  0014                     start_initialization:	
  1537  0014                     __initialization:	
  1538                           
  1539                           ; Clear objects allocated to BITBANK0
  1540  0014  01E7               	clrf	(__pbitbssBANK0/(0+8))& (0+127)
  1541                           
  1542                           ; Clear objects allocated to BANK0
  1543  0015  01D9               	clrf	__pbssBANK0& (0+127)
  1544  0016  01DA               	clrf	(__pbssBANK0+1)& (0+127)
  1545  0017  01DB               	clrf	(__pbssBANK0+2)& (0+127)
  1546  0018  01DC               	clrf	(__pbssBANK0+3)& (0+127)
  1547  0019  01DD               	clrf	(__pbssBANK0+4)& (0+127)
  1548  001A  01DE               	clrf	(__pbssBANK0+5)& (0+127)
  1549  001B  01DF               	clrf	(__pbssBANK0+6)& (0+127)
  1550  001C  01E0               	clrf	(__pbssBANK0+7)& (0+127)
  1551  001D  01E1               	clrf	(__pbssBANK0+8)& (0+127)
  1552  001E  01E2               	clrf	(__pbssBANK0+9)& (0+127)
  1553  001F  01E3               	clrf	(__pbssBANK0+10)& (0+127)
  1554  0020                     end_of_initialization:	
  1555                           ;End of C runtime variable initialization code
  1556                           
  1557  0020                     __end_of__initialization:	
  1558  0020  0020               	movlb	0
  1559  0021  2D82               	ljmp	_main	;jump to C main() function
  1560                           
  1561                           	psect	bitbssBANK0
  1562  0338                     __pbitbssBANK0:	
  1563  0338                     _bDoNotSleep:	
  1564  0338                     	ds	1
  1565  0339                     _bInterrupted:	
  1566  0339                     	ds	1
  1567                           
  1568                           	psect	bssBANK0
  1569  0059                     __pbssBANK0:	
  1570  0059                     _pulses:	
  1571  0059                     	ds	4
  1572  005D                     _ulgCyclesForReset:	
  1573  005D                     	ds	4
  1574  0061                     _ucIAmAliveOFF:	
  1575  0061                     	ds	1
  1576  0062                     _ucIAmAliveON:	
  1577  0062                     	ds	1
  1578  0063                     _ucValveState:	
  1579  0063                     	ds	1
  1580                           
  1581                           	psect	cstackCOMMON
  1582  0070                     __pcstackCOMMON:	
  1583  0070                     ?_TMR2_StartTimer:	
  1584  0070                     ??_TMR2_StartTimer:	
  1585                           ; 0 bytes @ 0x0
  1586                           
  1587  0070                     ?_TMR1_ISR:	
  1588                           ; 0 bytes @ 0x0
  1589                           
  1590  0070                     ??_TMR1_ISR:	
  1591                           ; 0 bytes @ 0x0
  1592                           
  1593  0070                     ?_OSCILLATOR_Initialize:	
  1594                           ; 0 bytes @ 0x0
  1595                           
  1596  0070                     ??_OSCILLATOR_Initialize:	
  1597                           ; 0 bytes @ 0x0
  1598                           
  1599  0070                     ?_PWM2_Initialize:	
  1600                           ; 0 bytes @ 0x0
  1601                           
  1602  0070                     ??_PWM2_Initialize:	
  1603                           ; 0 bytes @ 0x0
  1604                           
  1605  0070                     ?_TMR1_Initialize:	
  1606                           ; 0 bytes @ 0x0
  1607                           
  1608  0070                     ??_TMR1_Initialize:	
  1609                           ; 0 bytes @ 0x0
  1610                           
  1611  0070                     ?_TMR0_Initialize:	
  1612                           ; 0 bytes @ 0x0
  1613                           
  1614  0070                     ??_TMR0_Initialize:	
  1615                           ; 0 bytes @ 0x0
  1616                           
  1617  0070                     ?_TMR1_StartTimer:	
  1618                           ; 0 bytes @ 0x0
  1619                           
  1620  0070                     ??_TMR1_StartTimer:	
  1621                           ; 0 bytes @ 0x0
  1622                           
  1623  0070                     ?_TMR1_CallBack:	
  1624                           ; 0 bytes @ 0x0
  1625                           
  1626  0070                     ??_TMR1_CallBack:	
  1627                           ; 0 bytes @ 0x0
  1628                           
  1629  0070                     ?_SolenoidManage:	
  1630                           ; 0 bytes @ 0x0
  1631                           
  1632  0070                     ?_LEDsManage:	
  1633                           ; 0 bytes @ 0x0
  1634                           
  1635  0070                     ?_WakeUpZigbee:	
  1636                           ; 0 bytes @ 0x0
  1637                           
  1638  0070                     ?_ImAliveManage:	
  1639                           ; 0 bytes @ 0x0
  1640                           
  1641  0070                     ??_ImAliveManage:	
  1642                           ; 0 bytes @ 0x0
  1643                           
  1644  0070                     ?_ResetZigbee:	
  1645                           ; 0 bytes @ 0x0
  1646                           
  1647  0070                     ??_ResetZigbee:	
  1648                           ; 0 bytes @ 0x0
  1649                           
  1650  0070                     ?_ADC_Initialize:	
  1651                           ; 0 bytes @ 0x0
  1652                           
  1653  0070                     ??_ADC_Initialize:	
  1654                           ; 0 bytes @ 0x0
  1655                           
  1656  0070                     ?_PWM1_Initialize:	
  1657                           ; 0 bytes @ 0x0
  1658                           
  1659  0070                     ??_PWM1_Initialize:	
  1660                           ; 0 bytes @ 0x0
  1661                           
  1662  0070                     ?_PWM1_LoadDutyValue:	
  1663                           ; 0 bytes @ 0x0
  1664                           
  1665  0070                     ?_TMR2_Initialize:	
  1666                           ; 0 bytes @ 0x0
  1667                           
  1668  0070                     ??_TMR2_Initialize:	
  1669                           ; 0 bytes @ 0x0
  1670                           
  1671  0070                     ?_FVR_Initialize:	
  1672                           ; 0 bytes @ 0x0
  1673                           
  1674  0070                     ??_FVR_Initialize:	
  1675                           ; 0 bytes @ 0x0
  1676                           
  1677  0070                     ?_PIN_MANAGER_Initialize:	
  1678                           ; 0 bytes @ 0x0
  1679                           
  1680  0070                     ??_PIN_MANAGER_Initialize:	
  1681                           ; 0 bytes @ 0x0
  1682                           
  1683  0070                     ?_PIN_MANAGER_IOC:	
  1684                           ; 0 bytes @ 0x0
  1685                           
  1686  0070                     ??_PIN_MANAGER_IOC:	
  1687                           ; 0 bytes @ 0x0
  1688                           
  1689  0070                     ?_INTERRUPT_InterruptManager:	
  1690                           ; 0 bytes @ 0x0
  1691                           
  1692  0070                     ??_INTERRUPT_InterruptManager:	
  1693                           ; 0 bytes @ 0x0
  1694                           
  1695  0070                     ?_SYSTEM_Initialize:	
  1696                           ; 0 bytes @ 0x0
  1697                           
  1698  0070                     ??_SYSTEM_Initialize:	
  1699                           ; 0 bytes @ 0x0
  1700                           
  1701  0070                     ?_ADC_GetConversion:	
  1702                           ; 0 bytes @ 0x0
  1703                           
  1704  0070                     ?_main:	
  1705                           ; 2 bytes @ 0x0
  1706                           
  1707  0070                     ?___ftpack:	
  1708                           ; 2 bytes @ 0x0
  1709                           
  1710  0070                     ?___aldiv:	
  1711                           ; 3 bytes @ 0x0
  1712                           
  1713  0070                     ResetZigbee@k:	
  1714                           ; 4 bytes @ 0x0
  1715                           
  1716  0070                     PWM1_LoadDutyValue@dutyValue:	
  1717                           ; 1 bytes @ 0x0
  1718                           
  1719  0070                     ___ftpack@arg:	
  1720                           ; 2 bytes @ 0x0
  1721                           
  1722  0070                     ___aldiv@divisor:	
  1723                           ; 3 bytes @ 0x0
  1724                           
  1725                           
  1726                           ; 4 bytes @ 0x0
  1727  0070                     	ds	2
  1728  0072                     ??_ADC_GetConversion:	
  1729  0072                     ??_PWM1_LoadDutyValue:	
  1730                           ; 0 bytes @ 0x2
  1731                           
  1732                           
  1733                           ; 0 bytes @ 0x2
  1734  0072                     	ds	1
  1735  0073                     ADC_GetConversion@channel:	
  1736  0073                     ___ftpack@exp:	
  1737                           ; 1 bytes @ 0x3
  1738                           
  1739                           
  1740                           ; 1 bytes @ 0x3
  1741  0073                     	ds	1
  1742  0074                     ___ftpack@sign:	
  1743  0074                     ___aldiv@dividend:	
  1744                           ; 1 bytes @ 0x4
  1745                           
  1746                           
  1747                           ; 4 bytes @ 0x4
  1748  0074                     	ds	1
  1749  0075                     ??___ftpack:	
  1750                           
  1751                           ; 0 bytes @ 0x5
  1752  0075                     	ds	3
  1753  0078                     ??___aldiv:	
  1754  0078                     ?___ftdiv:	
  1755                           ; 0 bytes @ 0x8
  1756                           
  1757  0078                     ?___ftmul:	
  1758                           ; 3 bytes @ 0x8
  1759                           
  1760  0078                     ?___lwtoft:	
  1761                           ; 3 bytes @ 0x8
  1762                           
  1763  0078                     ___aldiv@counter:	
  1764                           ; 3 bytes @ 0x8
  1765                           
  1766  0078                     ___lwtoft@c:	
  1767                           ; 1 bytes @ 0x8
  1768                           
  1769  0078                     ___ftdiv@f2:	
  1770                           ; 2 bytes @ 0x8
  1771                           
  1772  0078                     ___ftmul@f1:	
  1773                           ; 3 bytes @ 0x8
  1774                           
  1775                           
  1776                           ; 3 bytes @ 0x8
  1777  0078                     	ds	1
  1778  0079                     ___aldiv@sign:	
  1779                           
  1780                           ; 1 bytes @ 0x9
  1781  0079                     	ds	1
  1782  007A                     ___aldiv@quotient:	
  1783                           
  1784                           ; 4 bytes @ 0xA
  1785  007A                     	ds	1
  1786  007B                     ??___lwtoft:	
  1787  007B                     ___ftdiv@f1:	
  1788                           ; 0 bytes @ 0xB
  1789                           
  1790  007B                     ___ftmul@f2:	
  1791                           ; 3 bytes @ 0xB
  1792                           
  1793                           
  1794                           ; 3 bytes @ 0xB
  1795  007B                     	ds	3
  1796  007E                     ??_LEDsManage:	
  1797  007E                     ??_WakeUpZigbee:	
  1798                           ; 0 bytes @ 0xE
  1799                           
  1800  007E                     ??_ReadainVBatt:	
  1801                           ; 0 bytes @ 0xE
  1802                           
  1803  007E                     ??_ReadPHVVoltage:	
  1804                           ; 0 bytes @ 0xE
  1805                           
  1806  007E                     ??_main:	
  1807                           ; 0 bytes @ 0xE
  1808                           
  1809  007E                     ??___ftge:	
  1810                           ; 0 bytes @ 0xE
  1811                           
  1812                           
  1813                           	psect	cstackBANK0
  1814  0020                     __pcstackBANK0:	
  1815                           ; 0 bytes @ 0xE
  1816                           
  1817  0020                     ??___ftdiv:	
  1818  0020                     ??___ftmul:	
  1819                           ; 0 bytes @ 0x0
  1820                           
  1821                           
  1822                           ; 0 bytes @ 0x0
  1823  0020                     	ds	3
  1824  0023                     ___ftdiv@cntr:	
  1825  0023                     ___ftmul@exp:	
  1826                           ; 1 bytes @ 0x3
  1827                           
  1828                           
  1829                           ; 1 bytes @ 0x3
  1830  0023                     	ds	1
  1831  0024                     ___ftdiv@f3:	
  1832  0024                     ___ftmul@f3_as_product:	
  1833                           ; 3 bytes @ 0x4
  1834                           
  1835                           
  1836                           ; 3 bytes @ 0x4
  1837  0024                     	ds	3
  1838  0027                     ___ftdiv@exp:	
  1839  0027                     ___ftmul@cntr:	
  1840                           ; 1 bytes @ 0x7
  1841                           
  1842                           
  1843                           ; 1 bytes @ 0x7
  1844  0027                     	ds	1
  1845  0028                     ___ftdiv@sign:	
  1846  0028                     ___ftmul@sign:	
  1847                           ; 1 bytes @ 0x8
  1848                           
  1849                           
  1850                           ; 1 bytes @ 0x8
  1851  0028                     	ds	1
  1852  0029                     ?___ftadd:	
  1853  0029                     ___ftadd@f1:	
  1854                           ; 3 bytes @ 0x9
  1855                           
  1856                           
  1857                           ; 3 bytes @ 0x9
  1858  0029                     	ds	3
  1859  002C                     ___ftadd@f2:	
  1860                           
  1861                           ; 3 bytes @ 0xC
  1862  002C                     	ds	3
  1863  002F                     ??___ftadd:	
  1864                           
  1865                           ; 0 bytes @ 0xF
  1866  002F                     	ds	3
  1867  0032                     ___ftadd@sign:	
  1868                           
  1869                           ; 1 bytes @ 0x12
  1870  0032                     	ds	1
  1871  0033                     ___ftadd@exp2:	
  1872                           
  1873                           ; 1 bytes @ 0x13
  1874  0033                     	ds	1
  1875  0034                     ___ftadd@exp1:	
  1876                           
  1877                           ; 1 bytes @ 0x14
  1878  0034                     	ds	1
  1879  0035                     ?_ReadainVBatt:	
  1880  0035                     ?_ReadPHVVoltage:	
  1881                           ; 3 bytes @ 0x15
  1882                           
  1883                           
  1884                           ; 3 bytes @ 0x15
  1885  0035                     	ds	3
  1886  0038                     ReadainVBatt@k:	
  1887  0038                     ReadPHVVoltage@k:	
  1888                           ; 1 bytes @ 0x18
  1889                           
  1890                           
  1891                           ; 1 bytes @ 0x18
  1892  0038                     	ds	1
  1893  0039                     ReadainVBatt@sum:	
  1894  0039                     ReadPHVVoltage@sum:	
  1895                           ; 3 bytes @ 0x19
  1896                           
  1897                           
  1898                           ; 3 bytes @ 0x19
  1899  0039                     	ds	3
  1900  003C                     ?___ftge:	
  1901  003C                     ___ftge@ff1:	
  1902                           ; 1 bit 
  1903                           
  1904                           
  1905                           ; 3 bytes @ 0x1C
  1906  003C                     	ds	3
  1907  003F                     ___ftge@ff2:	
  1908                           
  1909                           ; 3 bytes @ 0x1F
  1910  003F                     	ds	3
  1911  0042                     ??_SolenoidManage:	
  1912  0042                     LEDsManage@ulgCyclesForLEDs:	
  1913                           ; 0 bytes @ 0x22
  1914                           
  1915                           
  1916                           ; 4 bytes @ 0x22
  1917  0042                     	ds	1
  1918  0043                     SolenoidManage@timeToSupplyShock:	
  1919                           
  1920                           ; 2 bytes @ 0x23
  1921  0043                     	ds	2
  1922  0045                     SolenoidManage@timeToCheckingShock:	
  1923                           
  1924                           ; 2 bytes @ 0x25
  1925  0045                     	ds	1
  1926  0046                     LEDsManage@intLedsOnTime:	
  1927                           
  1928                           ; 1 bytes @ 0x26
  1929  0046                     	ds	1
  1930  0047                     SolenoidManage@timeForDemagnetising:	
  1931                           
  1932                           ; 1 bytes @ 0x27
  1933  0047                     	ds	1
  1934  0048                     SolenoidManage@timeForHighVoltageOnSolenoid:	
  1935                           
  1936                           ; 1 bytes @ 0x28
  1937  0048                     	ds	1
  1938  0049                     SolenoidManage@timeForSprinkling:	
  1939                           
  1940                           ; 2 bytes @ 0x29
  1941  0049                     	ds	2
  1942  004B                     SolenoidManage@lngPulsesWorking:	
  1943                           
  1944                           ; 4 bytes @ 0x2B
  1945  004B                     	ds	4
  1946  004F                     SolenoidManage@timeForStopping:	
  1947                           
  1948                           ; 2 bytes @ 0x2F
  1949  004F                     	ds	2
  1950  0051                     SolenoidManage@lngPulsesNotWorking:	
  1951                           
  1952                           ; 4 bytes @ 0x31
  1953  0051                     	ds	4
  1954  0055                     SolenoidManage@flainVBatt:	
  1955                           
  1956                           ; 3 bytes @ 0x35
  1957  0055                     	ds	3
  1958  0058                     main@m:	
  1959                           
  1960                           ; 1 bytes @ 0x38
  1961  0058                     	ds	1
  1962                           
  1963                           	psect	maintext
  1964  0582                     __pmaintext:	
  1965 ;;
  1966 ;;Main: autosize = 0, tempsize = 0, incstack = 0, save=0
  1967 ;;
  1968 ;; *************** function _main *****************
  1969 ;; Defined at:
  1970 ;;		line 73 in file "main_0.c"
  1971 ;; Parameters:    Size  Location     Type
  1972 ;;		None
  1973 ;; Auto vars:     Size  Location     Type
  1974 ;;  m               1   56[BANK0 ] unsigned char 
  1975 ;; Return value:  Size  Location     Type
  1976 ;;                  2  349[None  ] int 
  1977 ;; Registers used:
  1978 ;;		wreg, fsr0l, fsr0h, status,2, status,0, pclath, cstack
  1979 ;; Tracked objects:
  1980 ;;		On entry : B1F/0
  1981 ;;		On exit  : 0/0
  1982 ;;		Unchanged: 0/0
  1983 ;; Data sizes:     COMMON   BANK0   BANK1
  1984 ;;      Params:         0       0       0
  1985 ;;      Locals:         0       1       0
  1986 ;;      Temps:          0       0       0
  1987 ;;      Totals:         0       1       0
  1988 ;;Total ram usage:        1 bytes
  1989 ;; Hardware stack levels required when called:    7
  1990 ;; This function calls:
  1991 ;;		_ImAliveManage
  1992 ;;		_LEDsManage
  1993 ;;		_PWM1_LoadDutyValue
  1994 ;;		_SYSTEM_Initialize
  1995 ;;		_SolenoidManage
  1996 ;;		_WakeUpZigbee
  1997 ;; This function is called by:
  1998 ;;		Startup code after reset
  1999 ;; This function uses a non-reentrant model
  2000 ;;
  2001                           
  2002                           
  2003                           ;psect for function _main
  2004  0582                     _main:	
  2005                           
  2006                           ;main_0.c: 78: SYSTEM_Initialize();
  2007                           
  2008                           ;incstack = 0
  2009                           ; Regs used in _main: [wreg-fsr0h+status,2+status,0+pclath+cstack]
  2010  0582  26EE               	fcall	_SYSTEM_Initialize
  2011                           
  2012                           ;main_0.c: 79: (INTCONbits.GIE = 1);
  2013  0583  178B               	bsf	11,7	;volatile
  2014                           
  2015                           ;main_0.c: 80: (INTCONbits.PEIE = 1);
  2016  0584  170B               	bsf	11,6	;volatile
  2017                           
  2018                           ;main_0.c: 81: PWM1_LoadDutyValue(50);
  2019  0585  3032               	movlw	50
  2020  0586  00F0               	movwf	PWM1_LoadDutyValue@dutyValue
  2021  0587  01F1               	clrf	PWM1_LoadDutyValue@dutyValue+1
  2022  0588  266D               	fcall	_PWM1_LoadDutyValue
  2023                           
  2024                           ;main_0.c: 84: IOCAP2=0; IOCAN2=0;
  2025  0589  0027               	movlb	7	; select bank7
  2026  058A  1111               	bcf	17,2	;volatile
  2027  058B  1112               	bcf	18,2	;volatile
  2028                           
  2029                           ;main_0.c: 85: WDTCON=0x12;
  2030  058C  3012               	movlw	18
  2031  058D  0021               	movlb	1	; select bank1
  2032  058E  0097               	movwf	23	;volatile
  2033                           
  2034                           ;main_0.c: 86: VREGCON=0x03;
  2035  058F  3003               	movlw	3
  2036  0590  0023               	movlb	3	; select bank3
  2037  0591  0097               	movwf	23	;volatile
  2038  0592  0022               	movlb	2	; select bank2
  2039  0593  178E               	bsf	14,7	;volatile
  2040  0594  0063               	sleep	;# 
  2041                           
  2042                           ;main_0.c: 89: for(unsigned char m=0;m<5;m++) asm("sleep");
  2043  0595  0020               	movlb	0	; select bank0
  2044  0596  01D8               	clrf	main@m
  2045  0597                     l352:	
  2046  0597  0063               	sleep	;# 
  2047  0598  0020               	movlb	0	; select bank0
  2048  0599  3005               	movlw	5
  2049  059A  0AD8               	incf	main@m,f
  2050  059B  0258               	subwf	main@m,w
  2051  059C  1C03               	skipc
  2052  059D  2D97               	goto	l352
  2053                           
  2054                           ;main_0.c: 91: do { LATC7 = 0; } while(0); asm("sleep");
  2055  059E  0022               	movlb	2	; select bank2
  2056  059F  138E               	bcf	14,7	;volatile
  2057  05A0  0063               	sleep	;# 
  2058  05A1                     l356:	
  2059                           ;main_0.c: 95: while (1)
  2060                           
  2061  05A1  0064               	clrwdt	;# 
  2062                           
  2063                           ;main_0.c: 98: SolenoidManage();
  2064  05A2  2022               	fcall	_SolenoidManage
  2065                           
  2066                           ;main_0.c: 99: LEDsManage();
  2067  05A3  25DF               	fcall	_LEDsManage
  2068                           
  2069                           ;main_0.c: 100: WakeUpZigbee();
  2070  05A4  260A               	fcall	_WakeUpZigbee
  2071                           
  2072                           ;main_0.c: 101: ImAliveManage();
  2073  05A5  2695               	fcall	_ImAliveManage
  2074                           
  2075                           ;main_0.c: 105: bInterrupted=0;
  2076  05A6  0020               	movlb	0	; select bank0
  2077  05A7  10E7               	bcf	_bInterrupted/(0+8),_bInterrupted& (0+7)
  2078                           
  2079                           ;main_0.c: 106: if (bDoNotSleep == 1)
  2080  05A8  1867               	btfsc	_bDoNotSleep/(0+8),_bDoNotSleep& (0+7)
  2081  05A9  2DAC               	goto	l358
  2082  05AA  2DB0               	goto	l357
  2083  05AB                     l359:	
  2084                           
  2085                           ;main_0.c: 109: {
  2086                           ;main_0.c: 110: __nop();
  2087  05AB  0000               	nop
  2088  05AC                     l358:	
  2089  05AC  0020               	movlb	0	; select bank0
  2090  05AD  18E7               	btfsc	_bInterrupted/(0+8),_bInterrupted& (0+7)
  2091  05AE  2DA1               	goto	l356
  2092  05AF  2DAB               	goto	l359
  2093  05B0                     l357:	
  2094  05B0  0063               	sleep	;# 
  2095  05B1  0000               	nop
  2096  05B2  2DA1               	goto	l356
  2097  05B3                     __end_of_main:	
  2098                           
  2099                           	psect	text1
  2100  060A                     __ptext1:	
  2101 ;; *************** function _WakeUpZigbee *****************
  2102 ;; Defined at:
  2103 ;;		line 523 in file "main_0.c"
  2104 ;; Parameters:    Size  Location     Type
  2105 ;;		None
  2106 ;; Auto vars:     Size  Location     Type
  2107 ;;		None
  2108 ;; Return value:  Size  Location     Type
  2109 ;;		None               void
  2110 ;; Registers used:
  2111 ;;		wreg, status,2, status,0, pclath, cstack
  2112 ;; Tracked objects:
  2113 ;;		On entry : 1D/2
  2114 ;;		On exit  : 1F/0
  2115 ;;		Unchanged: 0/0
  2116 ;; Data sizes:     COMMON   BANK0   BANK1
  2117 ;;      Params:         0       0       0
  2118 ;;      Locals:         0       0       0
  2119 ;;      Temps:          0       0       0
  2120 ;;      Totals:         0       0       0
  2121 ;;Total ram usage:        0 bytes
  2122 ;; Hardware stack levels used:    1
  2123 ;; Hardware stack levels required when called:    6
  2124 ;; This function calls:
  2125 ;;		_ReadPHVVoltage
  2126 ;;		_ResetZigbee
  2127 ;;		___ftge
  2128 ;; This function is called by:
  2129 ;;		_main
  2130 ;; This function uses a non-reentrant model
  2131 ;;
  2132                           
  2133                           
  2134                           ;psect for function _WakeUpZigbee
  2135  060A                     _WakeUpZigbee:	
  2136                           
  2137                           ;main_0.c: 529: ulgCyclesForReset++ ;
  2138                           
  2139                           ;incstack = 0
  2140                           ; Regs used in _WakeUpZigbee: [wreg+status,2+status,0+pclath+cstack]
  2141  060A  3001               	movlw	1
  2142  060B  0020               	movlb	0	; select bank0
  2143  060C  07DD               	addwf	_ulgCyclesForReset,f
  2144  060D  3000               	movlw	0
  2145  060E  3DDE               	addwfc	_ulgCyclesForReset+1,f
  2146  060F  3DDF               	addwfc	_ulgCyclesForReset+2,f
  2147  0610  3DE0               	addwfc	_ulgCyclesForReset+3,f
  2148                           
  2149                           ;main_0.c: 532: if ((ulgCyclesForReset > 600000L) && (ucValveState==0) && (ReadPHVVoltag
      +                          e() > 15.1)) ResetZigbee();
  2150  0611  0860               	movf	_ulgCyclesForReset+3,w
  2151  0612  1D03               	btfss	3,2
  2152  0613  2E1C               	goto	l2271
  2153  0614  30C1               	movlw	193
  2154  0615  025D               	subwf	_ulgCyclesForReset,w
  2155  0616  3027               	movlw	39
  2156  0617  3B5E               	subwfb	_ulgCyclesForReset+1,w
  2157  0618  3009               	movlw	9
  2158  0619  3B5F               	subwfb	_ulgCyclesForReset+2,w
  2159  061A  1C03               	btfss	3,0
  2160  061B  0008               	return
  2161  061C                     l2271:	
  2162  061C  0863               	movf	_ucValveState,w
  2163  061D  1D03               	btfss	3,2
  2164  061E  0008               	return
  2165  061F  309A               	movlw	154
  2166  0620  00BC               	movwf	___ftge@ff1
  2167  0621  3071               	movlw	113
  2168  0622  00BD               	movwf	___ftge@ff1+1
  2169  0623  3041               	movlw	65
  2170  0624  00BE               	movwf	___ftge@ff1+2
  2171  0625  239B               	fcall	_ReadPHVVoltage
  2172  0626  0835               	movf	?_ReadPHVVoltage,w
  2173  0627  00BF               	movwf	___ftge@ff2
  2174  0628  0836               	movf	?_ReadPHVVoltage+1,w
  2175  0629  00C0               	movwf	___ftge@ff2+1
  2176  062A  0837               	movf	?_ReadPHVVoltage+2,w
  2177  062B  00C1               	movwf	___ftge@ff2+2
  2178  062C  25B3               	fcall	___ftge
  2179  062D  1803               	btfsc	3,0
  2180  062E  0008               	return
  2181  062F  2EA8               	ljmp	l534
  2182  0630                     __end_of_WakeUpZigbee:	
  2183                           
  2184                           	psect	text2
  2185  0022                     __ptext2:	
  2186 ;; *************** function _SolenoidManage *****************
  2187 ;; Defined at:
  2188 ;;		line 125 in file "main_0.c"
  2189 ;; Parameters:    Size  Location     Type
  2190 ;;		None
  2191 ;; Auto vars:     Size  Location     Type
  2192 ;;  lngPulsesNot    4   49[BANK0 ] long 
  2193 ;;  lngPulsesWor    4   43[BANK0 ] long 
  2194 ;;  flainVBatt      3   53[BANK0 ] float 
  2195 ;;  timeForStopp    2   47[BANK0 ] int 
  2196 ;;  timeForSprin    2   41[BANK0 ] int 
  2197 ;;  timeToChecki    2   37[BANK0 ] int 
  2198 ;;  timeToSupply    2   35[BANK0 ] int 
  2199 ;;  timeForHighV    1   40[BANK0 ] unsigned char 
  2200 ;;  timeForDemag    1   39[BANK0 ] unsigned char 
  2201 ;; Return value:  Size  Location     Type
  2202 ;;		None               void
  2203 ;; Registers used:
  2204 ;;		wreg, fsr0l, fsr0h, status,2, status,0, pclath, cstack
  2205 ;; Tracked objects:
  2206 ;;		On entry : 0/2
  2207 ;;		On exit  : 0/0
  2208 ;;		Unchanged: 0/0
  2209 ;; Data sizes:     COMMON   BANK0   BANK1
  2210 ;;      Params:         0       0       0
  2211 ;;      Locals:         0      21       0
  2212 ;;      Temps:          0       1       0
  2213 ;;      Totals:         0      22       0
  2214 ;;Total ram usage:       22 bytes
  2215 ;; Hardware stack levels used:    1
  2216 ;; Hardware stack levels required when called:    6
  2217 ;; This function calls:
  2218 ;;		_ReadainVBatt
  2219 ;;		_ResetZigbee
  2220 ;;		___aldiv
  2221 ;;		___ftge
  2222 ;; This function is called by:
  2223 ;;		_main
  2224 ;; This function uses a non-reentrant model
  2225 ;;
  2226                           
  2227                           
  2228                           ;psect for function _SolenoidManage
  2229  0022                     _SolenoidManage:	
  2230                           
  2231                           ;main_0.c: 142: unsigned char timeForHighVoltageOnSolenoid = 0;
  2232                           
  2233                           ;incstack = 0
  2234                           ; Regs used in _SolenoidManage: [wreg-fsr0h+status,2+status,0+pclath+cstack]
  2235  0022  0020               	movlb	0	; select bank0
  2236  0023  01C8               	clrf	SolenoidManage@timeForHighVoltageOnSolenoid
  2237                           
  2238                           ;main_0.c: 143: int timeToSupplyShock=0;
  2239  0024  01C3               	clrf	SolenoidManage@timeToSupplyShock
  2240  0025  01C4               	clrf	SolenoidManage@timeToSupplyShock+1
  2241                           
  2242                           ;main_0.c: 144: int timeToCheckingShock=0;
  2243  0026  01C5               	clrf	SolenoidManage@timeToCheckingShock
  2244  0027  01C6               	clrf	SolenoidManage@timeToCheckingShock+1
  2245                           
  2246                           ;main_0.c: 145: int timeForSprinkling =0;
  2247  0028  01C9               	clrf	SolenoidManage@timeForSprinkling
  2248  0029  01CA               	clrf	SolenoidManage@timeForSprinkling+1
  2249                           
  2250                           ;main_0.c: 146: unsigned char timeForDemagnetising=0;
  2251  002A  01C7               	clrf	SolenoidManage@timeForDemagnetising
  2252                           
  2253                           ;main_0.c: 147: int timeForStopping=0;
  2254  002B  01CF               	clrf	SolenoidManage@timeForStopping
  2255  002C  01D0               	clrf	SolenoidManage@timeForStopping+1
  2256                           
  2257                           ;main_0.c: 148: long lngPulsesWorking;
  2258                           ;main_0.c: 149: long lngPulsesNotWorking;
  2259                           ;main_0.c: 150: float flainVBatt;
  2260                           ;main_0.c: 152: switch (ucValveState)
  2261  002D  2A69               	goto	l2237
  2262  002E                     l368:	
  2263                           ;main_0.c: 153: {
  2264                           ;main_0.c: 155: case 0:
  2265                           
  2266                           
  2267                           ;main_0.c: 156: if (RB4)
  2268  002E  1E0D               	btfss	13,4	;volatile
  2269  002F  0008               	return
  2270                           
  2271                           ;main_0.c: 157: {
  2272                           ;main_0.c: 158: ucValveState=1 ;
  2273  0030  01E3               	clrf	_ucValveState
  2274  0031  0AE3               	incf	_ucValveState,f
  2275  0032  0008               	return
  2276  0033                     l372:	
  2277                           ;main_0.c: 166: {
  2278                           ;main_0.c: 167: do { LATB7 = 0; } while(0);
  2279                           
  2280  0033  0022               	movlb	2	; select bank2
  2281  0034  138D               	bcf	13,7	;volatile
  2282                           
  2283                           ;main_0.c: 168: flainVBatt = ReadainVBatt();
  2284  0035  2329               	fcall	_ReadainVBatt
  2285  0036  0835               	movf	?_ReadainVBatt,w
  2286  0037  00D5               	movwf	SolenoidManage@flainVBatt
  2287  0038  0836               	movf	?_ReadainVBatt+1,w
  2288  0039  00D6               	movwf	SolenoidManage@flainVBatt+1
  2289  003A  0837               	movf	?_ReadainVBatt+2,w
  2290  003B  00D7               	movwf	SolenoidManage@flainVBatt+2
  2291                           
  2292                           ;main_0.c: 170: if (flainVBatt<10.1)
  2293  003C  0855               	movf	SolenoidManage@flainVBatt,w
  2294  003D  00BC               	movwf	___ftge@ff1
  2295  003E  0856               	movf	SolenoidManage@flainVBatt+1,w
  2296  003F  00BD               	movwf	___ftge@ff1+1
  2297  0040  0857               	movf	SolenoidManage@flainVBatt+2,w
  2298  0041  00BE               	movwf	___ftge@ff1+2
  2299  0042  309A               	movlw	154
  2300  0043  00BF               	movwf	___ftge@ff2
  2301  0044  3021               	movlw	33
  2302  0045  00C0               	movwf	___ftge@ff2+1
  2303  0046  3041               	movlw	65
  2304  0047  00C1               	movwf	___ftge@ff2+2
  2305  0048  25B3               	fcall	___ftge
  2306  0049  1803               	btfsc	3,0
  2307  004A  2851               	goto	l378
  2308                           
  2309                           ;main_0.c: 171: {
  2310                           ;main_0.c: 172: do { LATB6 = 1; } while(0);
  2311  004B  0022               	movlb	2	; select bank2
  2312  004C  170D               	bsf	13,6	;volatile
  2313  004D                     l2087:	
  2314                           
  2315                           ;main_0.c: 173: ucValveState=10 ;
  2316  004D  300A               	movlw	10
  2317  004E  0020               	movlb	0	; select bank0
  2318  004F  00E3               	movwf	_ucValveState
  2319                           
  2320                           ;main_0.c: 174: }
  2321  0050  0008               	return
  2322  0051                     l378:	
  2323                           ;main_0.c: 175: else
  2324                           ;main_0.c: 176: {
  2325                           ;main_0.c: 177: do { LATB6 = 0; } while(0);
  2326                           
  2327  0051  0022               	movlb	2	; select bank2
  2328  0052  130D               	bcf	13,6	;volatile
  2329                           
  2330                           ;main_0.c: 179: PWM1CON = 0x90;do { LATC5 = 1; } while(0);
  2331  0053  3090               	movlw	144
  2332  0054  002C               	movlb	12	; select bank12
  2333  0055  0093               	movwf	19	;volatile
  2334  0056  0022               	movlb	2	; select bank2
  2335  0057  168E               	bsf	14,5	;volatile
  2336                           
  2337                           ;main_0.c: 180: ucValveState=2 ;
  2338  0058  3002               	movlw	2
  2339  0059  0020               	movlb	0	; select bank0
  2340  005A  00E3               	movwf	_ucValveState
  2341  005B  0008               	return
  2342  005C                     l2097:	
  2343  005C  3005               	movlw	5
  2344                           
  2345                           ;main_0.c: 189: {
  2346                           ;main_0.c: 190: timeForHighVoltageOnSolenoid++;
  2347  005D  0AC8               	incf	SolenoidManage@timeForHighVoltageOnSolenoid,f
  2348                           
  2349                           ;main_0.c: 191: if (timeForHighVoltageOnSolenoid > 4)
  2350  005E  0248               	subwf	SolenoidManage@timeForHighVoltageOnSolenoid,w
  2351  005F  1C03               	skipc
  2352  0060  0008               	return
  2353                           
  2354                           ;main_0.c: 192: {
  2355                           ;main_0.c: 194: if (! RA4) {do { LATA5 = 1; } while(0);}
  2356  0061  1A0C               	btfsc	12,4	;volatile
  2357  0062  2866               	goto	l388
  2358  0063  0022               	movlb	2	; select bank2
  2359  0064  168C               	bsf	12,5	;volatile
  2360  0065  2868               	goto	l2103
  2361  0066                     l388:	
  2362                           ;main_0.c: 195: else {do { LATA5 = 0; } while(0);}
  2363                           
  2364  0066  0022               	movlb	2	; select bank2
  2365  0067  128C               	bcf	12,5	;volatile
  2366  0068                     l2103:	
  2367                           
  2368                           ;main_0.c: 197: flainVBatt = ReadainVBatt();
  2369  0068  2329               	fcall	_ReadainVBatt
  2370  0069  0835               	movf	?_ReadainVBatt,w
  2371  006A  00D5               	movwf	SolenoidManage@flainVBatt
  2372  006B  0836               	movf	?_ReadainVBatt+1,w
  2373  006C  00D6               	movwf	SolenoidManage@flainVBatt+1
  2374  006D  0837               	movf	?_ReadainVBatt+2,w
  2375  006E  00D7               	movwf	SolenoidManage@flainVBatt+2
  2376                           
  2377                           ;main_0.c: 198: if (flainVBatt < 10.1)
  2378  006F  0855               	movf	SolenoidManage@flainVBatt,w
  2379  0070  00BC               	movwf	___ftge@ff1
  2380  0071  0856               	movf	SolenoidManage@flainVBatt+1,w
  2381  0072  00BD               	movwf	___ftge@ff1+1
  2382  0073  0857               	movf	SolenoidManage@flainVBatt+2,w
  2383  0074  00BE               	movwf	___ftge@ff1+2
  2384  0075  309A               	movlw	154
  2385  0076  00BF               	movwf	___ftge@ff2
  2386  0077  3021               	movlw	33
  2387  0078  00C0               	movwf	___ftge@ff2+1
  2388  0079  3041               	movlw	65
  2389  007A  00C1               	movwf	___ftge@ff2+2
  2390  007B  25B3               	fcall	___ftge
  2391  007C  1803               	btfsc	3,0
  2392  007D  2886               	goto	l2109
  2393  007E                     l391:	
  2394                           ;main_0.c: 199: {
  2395                           ;main_0.c: 200: do { LATB6 = 1; } while(0);
  2396                           
  2397  007E  0022               	movlb	2	; select bank2
  2398  007F  170D               	bsf	13,6	;volatile
  2399  0080                     l2105:	
  2400                           
  2401                           ;main_0.c: 201: PWM1CON = 0x90;do { LATC5 = 0; } while(0);
  2402  0080  3090               	movlw	144
  2403  0081  002C               	movlb	12	; select bank12
  2404  0082  0093               	movwf	19	;volatile
  2405  0083  0022               	movlb	2	; select bank2
  2406  0084  128E               	bcf	14,5	;volatile
  2407  0085  284D               	goto	l2087
  2408  0086                     l2109:	
  2409                           
  2410                           ;main_0.c: 204: else
  2411                           ;main_0.c: 205: {
  2412                           ;main_0.c: 206: ucValveState=3 ;
  2413  0086  3003               	movlw	3
  2414  0087  00E3               	movwf	_ucValveState
  2415  0088  0008               	return
  2416  0089                     l396:	
  2417                           ;main_0.c: 214: case 3:
  2418                           
  2419  0089  30C0               	movlw	192
  2420                           
  2421                           ;main_0.c: 215: {
  2422                           ;main_0.c: 216: bDoNotSleep = 1;
  2423  008A  1467               	bsf	_bDoNotSleep/(0+8),_bDoNotSleep& (0+7)
  2424                           
  2425                           ;main_0.c: 218: PWM1CON = 0xC0;
  2426  008B  002C               	movlb	12	; select bank12
  2427  008C  0093               	movwf	19	;volatile
  2428                           
  2429                           ;main_0.c: 219: ucValveState=4 ;
  2430  008D  3004               	movlw	4
  2431  008E  0020               	movlb	0	; select bank0
  2432  008F  00E3               	movwf	_ucValveState
  2433                           
  2434                           ;main_0.c: 220: }
  2435                           ;main_0.c: 221: break;
  2436  0090  0008               	return
  2437  0091                     l2113:	
  2438                           
  2439                           ;main_0.c: 227: {
  2440                           ;main_0.c: 228: timeToSupplyShock++;
  2441  0091  0AC3               	incf	SolenoidManage@timeToSupplyShock,f
  2442  0092  1903               	skipnz
  2443  0093  0AC4               	incf	SolenoidManage@timeToSupplyShock+1,f
  2444                           
  2445                           ;main_0.c: 229: flainVBatt = ReadainVBatt();
  2446  0094  2329               	fcall	_ReadainVBatt
  2447  0095  0835               	movf	?_ReadainVBatt,w
  2448  0096  00D5               	movwf	SolenoidManage@flainVBatt
  2449  0097  0836               	movf	?_ReadainVBatt+1,w
  2450  0098  00D6               	movwf	SolenoidManage@flainVBatt+1
  2451  0099  0837               	movf	?_ReadainVBatt+2,w
  2452  009A  00D7               	movwf	SolenoidManage@flainVBatt+2
  2453                           
  2454                           ;main_0.c: 230: if (flainVBatt<10.1)
  2455  009B  0855               	movf	SolenoidManage@flainVBatt,w
  2456  009C  00BC               	movwf	___ftge@ff1
  2457  009D  0856               	movf	SolenoidManage@flainVBatt+1,w
  2458  009E  00BD               	movwf	___ftge@ff1+1
  2459  009F  0857               	movf	SolenoidManage@flainVBatt+2,w
  2460  00A0  00BE               	movwf	___ftge@ff1+2
  2461  00A1  309A               	movlw	154
  2462  00A2  00BF               	movwf	___ftge@ff2
  2463  00A3  3021               	movlw	33
  2464  00A4  00C0               	movwf	___ftge@ff2+1
  2465  00A5  3041               	movlw	65
  2466  00A6  00C1               	movwf	___ftge@ff2+2
  2467  00A7  25B3               	fcall	___ftge
  2468  00A8  1C03               	btfss	3,0
  2469  00A9  287E               	goto	l391
  2470                           
  2471                           ;main_0.c: 237: else if (timeToSupplyShock> 300 )
  2472  00AA  0844               	movf	SolenoidManage@timeToSupplyShock+1,w
  2473  00AB  3A80               	xorlw	128
  2474  00AC  00C2               	movwf	??_SolenoidManage
  2475  00AD  3081               	movlw	129
  2476  00AE  0242               	subwf	??_SolenoidManage,w
  2477  00AF  1D03               	skipz
  2478  00B0  28B3               	goto	u1615
  2479  00B1  302D               	movlw	45
  2480  00B2  0243               	subwf	SolenoidManage@timeToSupplyShock,w
  2481  00B3                     u1615:	
  2482  00B3  1C03               	skipc
  2483  00B4  0008               	return
  2484                           
  2485                           ;main_0.c: 238: {
  2486                           ;main_0.c: 239: do { LATC2 = 1; } while(0);
  2487  00B5  0022               	movlb	2	; select bank2
  2488  00B6  150E               	bsf	14,2	;volatile
  2489                           
  2490                           ;main_0.c: 240: ucValveState=5;
  2491  00B7  3005               	movlw	5
  2492  00B8  0020               	movlb	0	; select bank0
  2493  00B9  00E3               	movwf	_ucValveState
  2494  00BA  0008               	return
  2495  00BB                     l2129:	
  2496                           
  2497                           ;main_0.c: 250: timeToCheckingShock++;
  2498  00BB  0AC5               	incf	SolenoidManage@timeToCheckingShock,f
  2499  00BC  1903               	skipnz
  2500  00BD  0AC6               	incf	SolenoidManage@timeToCheckingShock+1,f
  2501                           
  2502                           ;main_0.c: 251: if (!RB4)
  2503  00BE  1A0D               	btfsc	13,4	;volatile
  2504  00BF  28D9               	goto	l2139
  2505                           
  2506                           ;main_0.c: 252: {
  2507                           ;main_0.c: 253: flainVBatt = ReadainVBatt();
  2508  00C0  2329               	fcall	_ReadainVBatt
  2509  00C1  0835               	movf	?_ReadainVBatt,w
  2510  00C2  00D5               	movwf	SolenoidManage@flainVBatt
  2511  00C3  0836               	movf	?_ReadainVBatt+1,w
  2512  00C4  00D6               	movwf	SolenoidManage@flainVBatt+1
  2513  00C5  0837               	movf	?_ReadainVBatt+2,w
  2514  00C6  00D7               	movwf	SolenoidManage@flainVBatt+2
  2515                           
  2516                           ;main_0.c: 254: if (flainVBatt >10.1) do { LATB6 = 0; } while(0);
  2517  00C7  309A               	movlw	154
  2518  00C8  00BC               	movwf	___ftge@ff1
  2519  00C9  3021               	movlw	33
  2520  00CA  00BD               	movwf	___ftge@ff1+1
  2521  00CB  3041               	movlw	65
  2522  00CC  00BE               	movwf	___ftge@ff1+2
  2523  00CD  0855               	movf	SolenoidManage@flainVBatt,w
  2524  00CE  00BF               	movwf	___ftge@ff2
  2525  00CF  0856               	movf	SolenoidManage@flainVBatt+1,w
  2526  00D0  00C0               	movwf	___ftge@ff2+1
  2527  00D1  0857               	movf	SolenoidManage@flainVBatt+2,w
  2528  00D2  00C1               	movwf	___ftge@ff2+2
  2529  00D3  25B3               	fcall	___ftge
  2530  00D4  1803               	btfsc	3,0
  2531  00D5  2880               	goto	l2105
  2532  00D6  0022               	movlb	2	; select bank2
  2533  00D7  130D               	bcf	13,6	;volatile
  2534  00D8  2880               	goto	l2105
  2535  00D9                     l2139:	
  2536                           
  2537                           ;main_0.c: 258: else if (flainVBatt<10.1)
  2538  00D9  0855               	movf	SolenoidManage@flainVBatt,w
  2539  00DA  00BC               	movwf	___ftge@ff1
  2540  00DB  0856               	movf	SolenoidManage@flainVBatt+1,w
  2541  00DC  00BD               	movwf	___ftge@ff1+1
  2542  00DD  0857               	movf	SolenoidManage@flainVBatt+2,w
  2543  00DE  00BE               	movwf	___ftge@ff1+2
  2544  00DF  309A               	movlw	154
  2545  00E0  00BF               	movwf	___ftge@ff2
  2546  00E1  3021               	movlw	33
  2547  00E2  00C0               	movwf	___ftge@ff2+1
  2548  00E3  3041               	movlw	65
  2549  00E4  00C1               	movwf	___ftge@ff2+2
  2550  00E5  25B3               	fcall	___ftge
  2551  00E6  1C03               	btfss	3,0
  2552  00E7  287E               	goto	l391
  2553                           
  2554                           ;main_0.c: 265: else if (timeToCheckingShock>10)
  2555  00E8  0846               	movf	SolenoidManage@timeToCheckingShock+1,w
  2556  00E9  3A80               	xorlw	128
  2557  00EA  00C2               	movwf	??_SolenoidManage
  2558  00EB  3080               	movlw	128
  2559  00EC  0242               	subwf	??_SolenoidManage,w
  2560  00ED  1D03               	skipz
  2561  00EE  28F1               	goto	u1655
  2562  00EF  300B               	movlw	11
  2563  00F0  0245               	subwf	SolenoidManage@timeToCheckingShock,w
  2564  00F1                     u1655:	
  2565  00F1  1C03               	skipc
  2566  00F2  0008               	return
  2567                           
  2568                           ;main_0.c: 266: {
  2569                           ;main_0.c: 267: do { LATB6 = 0; } while(0);
  2570  00F3  0022               	movlb	2	; select bank2
  2571  00F4  130D               	bcf	13,6	;volatile
  2572                           
  2573                           ;main_0.c: 269: do { LATC2 = 1; } while(0);
  2574  00F5  150E               	bsf	14,2	;volatile
  2575                           
  2576                           ;main_0.c: 270: pulses=0;
  2577  00F6  0020               	movlb	0	; select bank0
  2578  00F7  3006               	movlw	6
  2579  00F8  01D9               	clrf	_pulses
  2580  00F9  01DA               	clrf	_pulses+1
  2581  00FA  01DB               	clrf	_pulses+2
  2582  00FB  01DC               	clrf	_pulses+3
  2583                           
  2584                           ;main_0.c: 271: ucValveState=6;
  2585  00FC  00E3               	movwf	_ucValveState
  2586  00FD  0008               	return
  2587  00FE                     l2149:	
  2588                           
  2589                           ;main_0.c: 278: timeForSprinkling++;
  2590  00FE  0AC9               	incf	SolenoidManage@timeForSprinkling,f
  2591  00FF  1903               	skipnz
  2592  0100  0ACA               	incf	SolenoidManage@timeForSprinkling+1,f
  2593                           
  2594                           ;main_0.c: 280: if (!RB4)
  2595  0101  1A0D               	btfsc	13,4	;volatile
  2596  0102  2927               	goto	l2161
  2597                           
  2598                           ;main_0.c: 281: {
  2599                           ;main_0.c: 282: if (flainVBatt>10.1) do { LATB6 = 0; } while(0);
  2600  0103  309A               	movlw	154
  2601  0104  00BC               	movwf	___ftge@ff1
  2602  0105  3021               	movlw	33
  2603  0106  00BD               	movwf	___ftge@ff1+1
  2604  0107  3041               	movlw	65
  2605  0108  00BE               	movwf	___ftge@ff1+2
  2606  0109  0855               	movf	SolenoidManage@flainVBatt,w
  2607  010A  00BF               	movwf	___ftge@ff2
  2608  010B  0856               	movf	SolenoidManage@flainVBatt+1,w
  2609  010C  00C0               	movwf	___ftge@ff2+1
  2610  010D  0857               	movf	SolenoidManage@flainVBatt+2,w
  2611  010E  00C1               	movwf	___ftge@ff2+2
  2612  010F  25B3               	fcall	___ftge
  2613  0110  1803               	btfsc	3,0
  2614  0111  2914               	goto	l2155
  2615  0112  0022               	movlb	2	; select bank2
  2616  0113  130D               	bcf	13,6	;volatile
  2617  0114                     l2155:	
  2618                           
  2619                           ;main_0.c: 283: PWM1CON = 0x90;do { LATC5 = 0; } while(0);
  2620  0114  3090               	movlw	144
  2621  0115  002C               	movlb	12	; select bank12
  2622  0116  0093               	movwf	19	;volatile
  2623  0117  0022               	movlb	2	; select bank2
  2624  0118  128E               	bcf	14,5	;volatile
  2625  0119  110E               	bcf	14,2	;volatile
  2626  011A  2923               	goto	l434
  2627  011B                     l2169:	
  2628                           
  2629                           ;main_0.c: 295: {
  2630                           ;main_0.c: 297: PWM1CON = 0x90;do { LATC5 = 0; } while(0);
  2631  011B  3090               	movlw	144
  2632  011C  002C               	movlb	12	; select bank12
  2633  011D  0093               	movwf	19	;volatile
  2634  011E  0022               	movlb	2	; select bank2
  2635  011F  128E               	bcf	14,5	;volatile
  2636                           
  2637                           ;main_0.c: 299: ResetZigbee();
  2638  0120  26A8               	fcall	_ResetZigbee
  2639  0121  0022               	movlb	2	; select bank2
  2640  0122  178D               	bsf	13,7	;volatile
  2641  0123                     l434:	
  2642                           
  2643                           ;main_0.c: 285: ucValveState=7 ;
  2644  0123  3007               	movlw	7
  2645  0124  0020               	movlb	0	; select bank0
  2646  0125  00E3               	movwf	_ucValveState
  2647                           
  2648                           ;main_0.c: 286: }
  2649  0126  0008               	return
  2650  0127                     l2161:	
  2651                           
  2652                           ;main_0.c: 287: else if (flainVBatt < 10.1)
  2653  0127  0855               	movf	SolenoidManage@flainVBatt,w
  2654  0128  00BC               	movwf	___ftge@ff1
  2655  0129  0856               	movf	SolenoidManage@flainVBatt+1,w
  2656  012A  00BD               	movwf	___ftge@ff1+1
  2657  012B  0857               	movf	SolenoidManage@flainVBatt+2,w
  2658  012C  00BE               	movwf	___ftge@ff1+2
  2659  012D  309A               	movlw	154
  2660  012E  00BF               	movwf	___ftge@ff2
  2661  012F  3021               	movlw	33
  2662  0130  00C0               	movwf	___ftge@ff2+1
  2663  0131  3041               	movlw	65
  2664  0132  00C1               	movwf	___ftge@ff2+2
  2665  0133  25B3               	fcall	___ftge
  2666  0134  1C03               	btfss	3,0
  2667  0135  287E               	goto	l391
  2668                           
  2669                           ;main_0.c: 294: else if (timeForSprinkling>9000)
  2670  0136  084A               	movf	SolenoidManage@timeForSprinkling+1,w
  2671  0137  3A80               	xorlw	128
  2672  0138  00C2               	movwf	??_SolenoidManage
  2673  0139  30A3               	movlw	163
  2674  013A  0242               	subwf	??_SolenoidManage,w
  2675  013B  1D03               	skipz
  2676  013C  293F               	goto	u1695
  2677  013D  3029               	movlw	41
  2678  013E  0249               	subwf	SolenoidManage@timeForSprinkling,w
  2679  013F                     u1695:	
  2680  013F  1803               	btfsc	3,0
  2681  0140  291B               	goto	l2169
  2682                           
  2683                           ;main_0.c: 303: else
  2684                           ;main_0.c: 304: {
  2685                           ;main_0.c: 306: if (timeForSprinkling < 600)
  2686  0141  0020               	movlb	0	; select bank0
  2687  0142  084A               	movf	SolenoidManage@timeForSprinkling+1,w
  2688  0143  3A80               	xorlw	128
  2689  0144  00C2               	movwf	??_SolenoidManage
  2690  0145  3082               	movlw	130
  2691  0146  0242               	subwf	??_SolenoidManage,w
  2692  0147  1D03               	skipz
  2693  0148  294B               	goto	u1705
  2694  0149  3058               	movlw	88
  2695  014A  0249               	subwf	SolenoidManage@timeForSprinkling,w
  2696  014B                     u1705:	
  2697  014B  1803               	skipnc
  2698  014C  2951               	goto	l2183
  2699                           
  2700                           ;main_0.c: 307: {
  2701                           ;main_0.c: 309: IOCAP2 = 1; IOCAN2=1;
  2702  014D  0027               	movlb	7	; select bank7
  2703  014E  1511               	bsf	17,2	;volatile
  2704  014F  1512               	bsf	18,2	;volatile
  2705                           
  2706                           ;main_0.c: 310: }
  2707  0150  0008               	return
  2708  0151                     l2183:	
  2709                           
  2710                           ;main_0.c: 311: else
  2711                           ;main_0.c: 312: {
  2712                           ;main_0.c: 313: lngPulsesWorking=pulses;
  2713  0151  0020               	movlb	0	; select bank0
  2714  0152  085C               	movf	_pulses+3,w
  2715  0153  00CE               	movwf	SolenoidManage@lngPulsesWorking+3
  2716  0154  085B               	movf	_pulses+2,w
  2717  0155  00CD               	movwf	SolenoidManage@lngPulsesWorking+2
  2718  0156  085A               	movf	_pulses+1,w
  2719  0157  00CC               	movwf	SolenoidManage@lngPulsesWorking+1
  2720  0158  0859               	movf	_pulses,w
  2721  0159  00CB               	movwf	SolenoidManage@lngPulsesWorking
  2722                           
  2723                           ;main_0.c: 314: if ((lngPulsesNotWorking==0) && (lngPulsesWorking>2)) do { LATC1 = 1; } 
      +                          while(0);
  2724  015A  0854               	movf	SolenoidManage@lngPulsesNotWorking+3,w
  2725  015B  0453               	iorwf	SolenoidManage@lngPulsesNotWorking+2,w
  2726  015C  0452               	iorwf	SolenoidManage@lngPulsesNotWorking+1,w
  2727  015D  0451               	iorwf	SolenoidManage@lngPulsesNotWorking,w
  2728  015E  1903               	btfsc	3,2
  2729  015F  1BCE               	btfsc	SolenoidManage@lngPulsesWorking+3,7
  2730  0160  2970               	goto	l2187
  2731  0161  084E               	movf	SolenoidManage@lngPulsesWorking+3,w
  2732  0162  1D03               	btfss	3,2
  2733  0163  296E               	goto	l451
  2734  0164  084D               	movf	SolenoidManage@lngPulsesWorking+2,w
  2735  0165  1D03               	btfss	3,2
  2736  0166  296E               	goto	l451
  2737  0167  084C               	movf	SolenoidManage@lngPulsesWorking+1,w
  2738  0168  1D03               	btfss	3,2
  2739  0169  296E               	goto	l451
  2740  016A  3003               	movlw	3
  2741  016B  024B               	subwf	SolenoidManage@lngPulsesWorking,w
  2742  016C  1C03               	btfss	3,0
  2743  016D  2970               	goto	l2187
  2744  016E                     l451:	
  2745  016E  0022               	movlb	2	; select bank2
  2746  016F  148E               	bsf	14,1	;volatile
  2747  0170                     l2187:	
  2748                           
  2749                           ;main_0.c: 315: if ((lngPulsesNotWorking >0)&&((lngPulsesWorking/lngPulsesNotWorking)>=2
      +                          ) )
  2750  0170  0020               	movlb	0	; select bank0
  2751  0171  1BD4               	btfsc	SolenoidManage@lngPulsesNotWorking+3,7
  2752  0172  29A3               	goto	l457
  2753  0173  0854               	movf	SolenoidManage@lngPulsesNotWorking+3,w
  2754  0174  1D03               	btfss	3,2
  2755  0175  2980               	goto	l2189
  2756  0176  0853               	movf	SolenoidManage@lngPulsesNotWorking+2,w
  2757  0177  1D03               	btfss	3,2
  2758  0178  2980               	goto	l2189
  2759  0179  0852               	movf	SolenoidManage@lngPulsesNotWorking+1,w
  2760  017A  1D03               	btfss	3,2
  2761  017B  2980               	goto	l2189
  2762  017C  3001               	movlw	1
  2763  017D  0251               	subwf	SolenoidManage@lngPulsesNotWorking,w
  2764  017E  1C03               	btfss	3,0
  2765  017F  29A3               	goto	l457
  2766  0180                     l2189:	
  2767  0180  0854               	movf	SolenoidManage@lngPulsesNotWorking+3,w
  2768  0181  00F3               	movwf	___aldiv@divisor+3
  2769  0182  0853               	movf	SolenoidManage@lngPulsesNotWorking+2,w
  2770  0183  00F2               	movwf	___aldiv@divisor+2
  2771  0184  0852               	movf	SolenoidManage@lngPulsesNotWorking+1,w
  2772  0185  00F1               	movwf	___aldiv@divisor+1
  2773  0186  0851               	movf	SolenoidManage@lngPulsesNotWorking,w
  2774  0187  00F0               	movwf	___aldiv@divisor
  2775  0188  084E               	movf	SolenoidManage@lngPulsesWorking+3,w
  2776  0189  00F7               	movwf	___aldiv@dividend+3
  2777  018A  084D               	movf	SolenoidManage@lngPulsesWorking+2,w
  2778  018B  00F6               	movwf	___aldiv@dividend+2
  2779  018C  084C               	movf	SolenoidManage@lngPulsesWorking+1,w
  2780  018D  00F5               	movwf	___aldiv@dividend+1
  2781  018E  084B               	movf	SolenoidManage@lngPulsesWorking,w
  2782  018F  00F4               	movwf	___aldiv@dividend
  2783  0190  240C               	fcall	___aldiv
  2784  0191  1BF3               	btfsc	?___aldiv+3,7
  2785  0192  29A3               	goto	l457
  2786  0193  0873               	movf	?___aldiv+3,w
  2787  0194  1D03               	btfss	3,2
  2788  0195  29A0               	goto	l454
  2789  0196  0872               	movf	?___aldiv+2,w
  2790  0197  1D03               	btfss	3,2
  2791  0198  29A0               	goto	l454
  2792  0199  0871               	movf	?___aldiv+1,w
  2793  019A  1D03               	btfss	3,2
  2794  019B  29A0               	goto	l454
  2795  019C  3002               	movlw	2
  2796  019D  0270               	subwf	?___aldiv,w
  2797  019E  1C03               	btfss	3,0
  2798  019F  29A3               	goto	l457
  2799  01A0                     l454:	
  2800                           ;main_0.c: 316: {
  2801                           ;main_0.c: 317: do { LATC1 = 1; } while(0);
  2802                           
  2803  01A0  0022               	movlb	2	; select bank2
  2804  01A1  148E               	bsf	14,1	;volatile
  2805  01A2  29A5               	goto	l459
  2806  01A3                     l457:	
  2807                           ;main_0.c: 319: else
  2808                           ;main_0.c: 320: {
  2809                           ;main_0.c: 321: do { LATC1 = 0; } while(0);
  2810                           
  2811  01A3  0022               	movlb	2	; select bank2
  2812  01A4  108E               	bcf	14,1	;volatile
  2813  01A5                     l459:	
  2814                           ;main_0.c: 322: }
  2815                           ;main_0.c: 323: do { LATC2 = 0; } while(0);
  2816                           
  2817  01A5  110E               	bcf	14,2	;volatile
  2818                           
  2819                           ;main_0.c: 324: IOCAP2 = 0; IOCAN2=0;
  2820  01A6  0027               	movlb	7	; select bank7
  2821  01A7  1111               	bcf	17,2	;volatile
  2822  01A8  1112               	bcf	18,2	;volatile
  2823  01A9  0008               	return
  2824  01AA                     l2191:	
  2825  01AA  3003               	movlw	3
  2826                           
  2827                           ;main_0.c: 333: timeForDemagnetising++;
  2828  01AB  0AC7               	incf	SolenoidManage@timeForDemagnetising,f
  2829                           
  2830                           ;main_0.c: 334: if( timeForDemagnetising > 2)
  2831  01AC  0247               	subwf	SolenoidManage@timeForDemagnetising,w
  2832  01AD  1C03               	skipc
  2833  01AE  0008               	return
  2834                           
  2835                           ;main_0.c: 335: {
  2836                           ;main_0.c: 336: if(!RA4) do { LATA5 = 1; } while(0);
  2837  01AF  1A0C               	btfsc	12,4	;volatile
  2838  01B0  29B4               	goto	l467
  2839  01B1  0022               	movlb	2	; select bank2
  2840  01B2  168C               	bsf	12,5	;volatile
  2841  01B3  29B6               	goto	l2197
  2842  01B4                     l467:	
  2843                           ;main_0.c: 337: else do { LATA5 = 0; } while(0);
  2844                           
  2845  01B4  0022               	movlb	2	; select bank2
  2846  01B5  128C               	bcf	12,5	;volatile
  2847  01B6                     l2197:	
  2848                           
  2849                           ;main_0.c: 338: ucValveState=8;
  2850  01B6  3008               	movlw	8
  2851  01B7  0020               	movlb	0	; select bank0
  2852  01B8  00E3               	movwf	_ucValveState
  2853  01B9  0008               	return
  2854  01BA                     l2199:	
  2855                           
  2856                           ;main_0.c: 349: ucValveState=9;
  2857  01BA  3009               	movlw	9
  2858  01BB  00E3               	movwf	_ucValveState
  2859                           
  2860                           ;main_0.c: 357: break;
  2861  01BC  0008               	return
  2862  01BD                     l2201:	
  2863                           
  2864                           ;main_0.c: 364: timeForStopping++;
  2865  01BD  0ACF               	incf	SolenoidManage@timeForStopping,f
  2866  01BE  1903               	skipnz
  2867  01BF  0AD0               	incf	SolenoidManage@timeForStopping+1,f
  2868                           
  2869                           ;main_0.c: 365: if (timeForStopping>1200)
  2870  01C0  0850               	movf	SolenoidManage@timeForStopping+1,w
  2871  01C1  3A80               	xorlw	128
  2872  01C2  00C2               	movwf	??_SolenoidManage
  2873  01C3  3084               	movlw	132
  2874  01C4  0242               	subwf	??_SolenoidManage,w
  2875  01C5  1D03               	skipz
  2876  01C6  29C9               	goto	u1775
  2877  01C7  30B1               	movlw	177
  2878  01C8  024F               	subwf	SolenoidManage@timeForStopping,w
  2879  01C9                     u1775:	
  2880  01C9  1C03               	skipc
  2881  01CA  2A50               	goto	l471
  2882                           
  2883                           ;main_0.c: 366: {
  2884                           ;main_0.c: 368: do { LATC2 = 1; } while(0);
  2885  01CB  0022               	movlb	2	; select bank2
  2886  01CC  150E               	bsf	14,2	;volatile
  2887                           
  2888                           ;main_0.c: 369: if ((timeForStopping > 1200+10)&& (timeForStopping < 1200+10+2))
  2889  01CD  0020               	movlb	0	; select bank0
  2890  01CE  0850               	movf	SolenoidManage@timeForStopping+1,w
  2891  01CF  3A80               	xorlw	128
  2892  01D0  00C2               	movwf	??_SolenoidManage
  2893  01D1  3084               	movlw	132
  2894  01D2  0242               	subwf	??_SolenoidManage,w
  2895  01D3  1D03               	skipz
  2896  01D4  29D7               	goto	u1785
  2897  01D5  30BB               	movlw	187
  2898  01D6  024F               	subwf	SolenoidManage@timeForStopping,w
  2899  01D7                     u1785:	
  2900  01D7  1C03               	skipc
  2901  01D8  29E8               	goto	l2211
  2902  01D9  0020               	movlb	0	; select bank0
  2903  01DA  0850               	movf	SolenoidManage@timeForStopping+1,w
  2904  01DB  3A80               	xorlw	128
  2905  01DC  00C2               	movwf	??_SolenoidManage
  2906  01DD  3084               	movlw	132
  2907  01DE  0242               	subwf	??_SolenoidManage,w
  2908  01DF  1D03               	skipz
  2909  01E0  29E3               	goto	u1795
  2910  01E1  30BC               	movlw	188
  2911  01E2  024F               	subwf	SolenoidManage@timeForStopping,w
  2912  01E3                     u1795:	
  2913  01E3  1803               	skipnc
  2914  01E4  29E8               	goto	l2211
  2915                           
  2916                           ;main_0.c: 370: {
  2917                           ;main_0.c: 371: IOCAP2 = 1; IOCAN2=1;
  2918  01E5  0027               	movlb	7	; select bank7
  2919  01E6  1511               	bsf	17,2	;volatile
  2920  01E7  1512               	bsf	18,2	;volatile
  2921  01E8                     l2211:	
  2922                           
  2923                           ;main_0.c: 372: }
  2924                           ;main_0.c: 374: if (timeForStopping>1200 + 600)
  2925  01E8  0020               	movlb	0	; select bank0
  2926  01E9  0850               	movf	SolenoidManage@timeForStopping+1,w
  2927  01EA  3A80               	xorlw	128
  2928  01EB  00C2               	movwf	??_SolenoidManage
  2929  01EC  3087               	movlw	135
  2930  01ED  0242               	subwf	??_SolenoidManage,w
  2931  01EE  1D03               	skipz
  2932  01EF  29F2               	goto	u1805
  2933  01F0  3009               	movlw	9
  2934  01F1  024F               	subwf	SolenoidManage@timeForStopping,w
  2935  01F2                     u1805:	
  2936  01F2  1C03               	skipc
  2937  01F3  0008               	return
  2938                           
  2939                           ;main_0.c: 375: {
  2940                           ;main_0.c: 376: lngPulsesNotWorking=pulses;
  2941  01F4  0020               	movlb	0	; select bank0
  2942  01F5  085C               	movf	_pulses+3,w
  2943  01F6  00D4               	movwf	SolenoidManage@lngPulsesNotWorking+3
  2944  01F7  085B               	movf	_pulses+2,w
  2945  01F8  00D3               	movwf	SolenoidManage@lngPulsesNotWorking+2
  2946  01F9  085A               	movf	_pulses+1,w
  2947  01FA  00D2               	movwf	SolenoidManage@lngPulsesNotWorking+1
  2948  01FB  0859               	movf	_pulses,w
  2949  01FC  00D1               	movwf	SolenoidManage@lngPulsesNotWorking
  2950                           
  2951                           ;main_0.c: 377: if ((lngPulsesNotWorking==0) && (lngPulsesWorking>2)) do { LATC1 = 0; } 
      +                          while(0);
  2952  01FD  0854               	movf	SolenoidManage@lngPulsesNotWorking+3,w
  2953  01FE  0453               	iorwf	SolenoidManage@lngPulsesNotWorking+2,w
  2954  01FF  0452               	iorwf	SolenoidManage@lngPulsesNotWorking+1,w
  2955  0200  0451               	iorwf	SolenoidManage@lngPulsesNotWorking,w
  2956  0201  1903               	btfsc	3,2
  2957  0202  1BCE               	btfsc	SolenoidManage@lngPulsesWorking+3,7
  2958  0203  2A13               	goto	l2217
  2959  0204  084E               	movf	SolenoidManage@lngPulsesWorking+3,w
  2960  0205  1D03               	btfss	3,2
  2961  0206  2A11               	goto	l477
  2962  0207  084D               	movf	SolenoidManage@lngPulsesWorking+2,w
  2963  0208  1D03               	btfss	3,2
  2964  0209  2A11               	goto	l477
  2965  020A  084C               	movf	SolenoidManage@lngPulsesWorking+1,w
  2966  020B  1D03               	btfss	3,2
  2967  020C  2A11               	goto	l477
  2968  020D  3003               	movlw	3
  2969  020E  024B               	subwf	SolenoidManage@lngPulsesWorking,w
  2970  020F  1C03               	btfss	3,0
  2971  0210  2A13               	goto	l2217
  2972  0211                     l477:	
  2973  0211  0022               	movlb	2	; select bank2
  2974  0212  108E               	bcf	14,1	;volatile
  2975  0213                     l2217:	
  2976                           
  2977                           ;main_0.c: 378: if ((lngPulsesNotWorking >0)&&((lngPulsesWorking/lngPulsesNotWorking)>=2
      +                          ) )
  2978  0213  0020               	movlb	0	; select bank0
  2979  0214  1BD4               	btfsc	SolenoidManage@lngPulsesNotWorking+3,7
  2980  0215  2A46               	goto	l483
  2981  0216  0854               	movf	SolenoidManage@lngPulsesNotWorking+3,w
  2982  0217  1D03               	btfss	3,2
  2983  0218  2A23               	goto	l2219
  2984  0219  0853               	movf	SolenoidManage@lngPulsesNotWorking+2,w
  2985  021A  1D03               	btfss	3,2
  2986  021B  2A23               	goto	l2219
  2987  021C  0852               	movf	SolenoidManage@lngPulsesNotWorking+1,w
  2988  021D  1D03               	btfss	3,2
  2989  021E  2A23               	goto	l2219
  2990  021F  3001               	movlw	1
  2991  0220  0251               	subwf	SolenoidManage@lngPulsesNotWorking,w
  2992  0221  1C03               	btfss	3,0
  2993  0222  2A46               	goto	l483
  2994  0223                     l2219:	
  2995  0223  0854               	movf	SolenoidManage@lngPulsesNotWorking+3,w
  2996  0224  00F3               	movwf	___aldiv@divisor+3
  2997  0225  0853               	movf	SolenoidManage@lngPulsesNotWorking+2,w
  2998  0226  00F2               	movwf	___aldiv@divisor+2
  2999  0227  0852               	movf	SolenoidManage@lngPulsesNotWorking+1,w
  3000  0228  00F1               	movwf	___aldiv@divisor+1
  3001  0229  0851               	movf	SolenoidManage@lngPulsesNotWorking,w
  3002  022A  00F0               	movwf	___aldiv@divisor
  3003  022B  084E               	movf	SolenoidManage@lngPulsesWorking+3,w
  3004  022C  00F7               	movwf	___aldiv@dividend+3
  3005  022D  084D               	movf	SolenoidManage@lngPulsesWorking+2,w
  3006  022E  00F6               	movwf	___aldiv@dividend+2
  3007  022F  084C               	movf	SolenoidManage@lngPulsesWorking+1,w
  3008  0230  00F5               	movwf	___aldiv@dividend+1
  3009  0231  084B               	movf	SolenoidManage@lngPulsesWorking,w
  3010  0232  00F4               	movwf	___aldiv@dividend
  3011  0233  240C               	fcall	___aldiv
  3012  0234  1BF3               	btfsc	?___aldiv+3,7
  3013  0235  2A46               	goto	l483
  3014  0236  0873               	movf	?___aldiv+3,w
  3015  0237  1D03               	btfss	3,2
  3016  0238  2A43               	goto	l480
  3017  0239  0872               	movf	?___aldiv+2,w
  3018  023A  1D03               	btfss	3,2
  3019  023B  2A43               	goto	l480
  3020  023C  0871               	movf	?___aldiv+1,w
  3021  023D  1D03               	btfss	3,2
  3022  023E  2A43               	goto	l480
  3023  023F  3002               	movlw	2
  3024  0240  0270               	subwf	?___aldiv,w
  3025  0241  1C03               	btfss	3,0
  3026  0242  2A46               	goto	l483
  3027  0243                     l480:	
  3028                           ;main_0.c: 379: {
  3029                           ;main_0.c: 380: do { LATC1 = 1; } while(0);
  3030                           
  3031  0243  0022               	movlb	2	; select bank2
  3032  0244  148E               	bsf	14,1	;volatile
  3033  0245  2A48               	goto	l485
  3034  0246                     l483:	
  3035                           ;main_0.c: 382: else
  3036                           ;main_0.c: 383: {
  3037                           ;main_0.c: 384: do { LATC1 = 0; } while(0);
  3038                           
  3039  0246  0022               	movlb	2	; select bank2
  3040  0247  108E               	bcf	14,1	;volatile
  3041  0248                     l485:	
  3042                           ;main_0.c: 385: }
  3043                           ;main_0.c: 386: do { LATC2 = 0; } while(0);
  3044                           
  3045  0248  110E               	bcf	14,2	;volatile
  3046                           
  3047                           ;main_0.c: 387: ucValveState=10;
  3048  0249  300A               	movlw	10
  3049  024A  0020               	movlb	0	; select bank0
  3050  024B  00E3               	movwf	_ucValveState
  3051                           
  3052                           ;main_0.c: 389: IOCAP2 = 0; IOCAN2=0;
  3053  024C  0027               	movlb	7	; select bank7
  3054  024D  1111               	bcf	17,2	;volatile
  3055  024E  1112               	bcf	18,2	;volatile
  3056  024F  0008               	return
  3057  0250                     l471:	
  3058                           
  3059                           ;main_0.c: 392: else
  3060                           ;main_0.c: 393: {
  3061                           ;main_0.c: 394: pulses=0;
  3062  0250  0020               	movlb	0	; select bank0
  3063  0251  01D9               	clrf	_pulses
  3064  0252  01DA               	clrf	_pulses+1
  3065  0253  01DB               	clrf	_pulses+2
  3066  0254  01DC               	clrf	_pulses+3
  3067  0255  0008               	return
  3068  0256                     l488:	
  3069                           ;main_0.c: 401: case 10:
  3070                           
  3071                           
  3072                           ;main_0.c: 403: bDoNotSleep=0;
  3073  0256  1067               	bcf	_bDoNotSleep/(0+8),_bDoNotSleep& (0+7)
  3074                           
  3075                           ;main_0.c: 404: if (RB4)
  3076  0257  1E0D               	btfss	13,4	;volatile
  3077  0258  2A5B               	goto	l2229
  3078                           
  3079                           ;main_0.c: 405: {
  3080                           ;main_0.c: 406: __nop();
  3081  0259  0000               	nop
  3082                           
  3083                           ;main_0.c: 407: }
  3084  025A  0008               	return
  3085  025B                     l2229:	
  3086                           
  3087                           ;main_0.c: 411: timeToSupplyShock=0;
  3088  025B  01C3               	clrf	SolenoidManage@timeToSupplyShock
  3089  025C  01C4               	clrf	SolenoidManage@timeToSupplyShock+1
  3090                           
  3091                           ;main_0.c: 412: timeToCheckingShock=0;
  3092  025D  01C5               	clrf	SolenoidManage@timeToCheckingShock
  3093  025E  01C6               	clrf	SolenoidManage@timeToCheckingShock+1
  3094                           
  3095                           ;main_0.c: 413: timeForDemagnetising=0;
  3096  025F  01C7               	clrf	SolenoidManage@timeForDemagnetising
  3097                           
  3098                           ;main_0.c: 414: timeForSprinkling =0;
  3099  0260  01C9               	clrf	SolenoidManage@timeForSprinkling
  3100  0261  01CA               	clrf	SolenoidManage@timeForSprinkling+1
  3101                           
  3102                           ;main_0.c: 415: timeForStopping=0;
  3103  0262  01CF               	clrf	SolenoidManage@timeForStopping
  3104  0263  01D0               	clrf	SolenoidManage@timeForStopping+1
  3105  0264  0022               	movlb	2	; select bank2
  3106  0265  110E               	bcf	14,2	;volatile
  3107                           
  3108                           ;main_0.c: 417: ucValveState=0 ;
  3109  0266  0020               	movlb	0	; select bank0
  3110  0267  01E3               	clrf	_ucValveState
  3111  0268  0008               	return
  3112  0269                     l2237:	
  3113  0269  0863               	movf	_ucValveState,w
  3114                           
  3115                           ; Switch size 1, requested type "speed"
  3116                           ; Number of cases is 11, Range of values is 0 to 10
  3117                           ; switch strategies available:
  3118                           ; Name         Instructions Cycles
  3119                           ; direct_byte           28     6 (fixed)
  3120                           ; simple_byte           34    18 (average)
  3121                           ; jumptable            260     6 (fixed)
  3122                           ;	Chosen strategy is direct_byte
  3123  026A  0084               	movwf	4
  3124  026B  300B               	movlw	11
  3125  026C  0204               	subwf	4,w
  3126  026D  1803               	skipnc
  3127  026E  284D               	goto	l2087
  3128  026F  3186               	movlp	high S2367
  3129  0270  30D8               	movlw	low S2367
  3130  0271  0704               	addwf	4,w
  3131  0272  0082               	movwf	2
  3132  0273  0008               	return
  3133  0274                     __end_of_SolenoidManage:	
  3134                           
  3135                           	psect	swtext1
  3136  06D8                     __pswtext1:	
  3137  06D8                     S2367:	
  3138  06D8  282E               	ljmp	l368
  3139  06D9  2833               	ljmp	l372
  3140  06DA  285C               	ljmp	l2097
  3141  06DB  2889               	ljmp	l396
  3142  06DC  2891               	ljmp	l2113
  3143  06DD  28BB               	ljmp	l2129
  3144  06DE  28FE               	ljmp	l2149
  3145  06DF  29AA               	ljmp	l2191
  3146  06E0  29BA               	ljmp	l2199
  3147  06E1  29BD               	ljmp	l2201
  3148  06E2  2A56               	ljmp	l488
  3149                           
  3150                           	psect	text3
  3151  040C                     __ptext3:	
  3152 ;; *************** function ___aldiv *****************
  3153 ;; Defined at:
  3154 ;;		line 6 in file "C:\Program Files (x86)\Microchip\xc8\v1.34\sources\common\aldiv.c"
  3155 ;; Parameters:    Size  Location     Type
  3156 ;;  divisor         4    0[COMMON] long 
  3157 ;;  dividend        4    4[COMMON] long 
  3158 ;; Auto vars:     Size  Location     Type
  3159 ;;  quotient        4   10[COMMON] long 
  3160 ;;  sign            1    9[COMMON] unsigned char 
  3161 ;;  counter         1    8[COMMON] unsigned char 
  3162 ;; Return value:  Size  Location     Type
  3163 ;;                  4    0[COMMON] long 
  3164 ;; Registers used:
  3165 ;;		wreg, status,2, status,0
  3166 ;; Tracked objects:
  3167 ;;		On entry : 1F/0
  3168 ;;		On exit  : 1F/0
  3169 ;;		Unchanged: 1F/0
  3170 ;; Data sizes:     COMMON   BANK0   BANK1
  3171 ;;      Params:         8       0       0
  3172 ;;      Locals:         6       0       0
  3173 ;;      Temps:          0       0       0
  3174 ;;      Totals:        14       0       0
  3175 ;;Total ram usage:       14 bytes
  3176 ;; Hardware stack levels used:    1
  3177 ;; Hardware stack levels required when called:    3
  3178 ;; This function calls:
  3179 ;;		Nothing
  3180 ;; This function is called by:
  3181 ;;		_SolenoidManage
  3182 ;; This function uses a non-reentrant model
  3183 ;;
  3184                           
  3185                           
  3186                           ;psect for function ___aldiv
  3187  040C                     ___aldiv:	
  3188                           
  3189                           ;incstack = 0
  3190                           ; Regs used in ___aldiv: [wreg+status,2+status,0]
  3191  040C  01F9               	clrf	___aldiv@sign
  3192  040D  1FF3               	btfss	___aldiv@divisor+3,7
  3193  040E  2C1C               	goto	l614
  3194  040F  09F0               	comf	___aldiv@divisor,f
  3195  0410  09F1               	comf	___aldiv@divisor+1,f
  3196  0411  09F2               	comf	___aldiv@divisor+2,f
  3197  0412  09F3               	comf	___aldiv@divisor+3,f
  3198  0413  0AF0               	incf	___aldiv@divisor,f
  3199  0414  1903               	skipnz
  3200  0415  0AF1               	incf	___aldiv@divisor+1,f
  3201  0416  1903               	skipnz
  3202  0417  0AF2               	incf	___aldiv@divisor+2,f
  3203  0418  1903               	skipnz
  3204  0419  0AF3               	incf	___aldiv@divisor+3,f
  3205  041A  01F9               	clrf	___aldiv@sign
  3206  041B  0AF9               	incf	___aldiv@sign,f
  3207  041C                     l614:	
  3208  041C  1FF7               	btfss	___aldiv@dividend+3,7
  3209  041D  2C2B               	goto	l2009
  3210  041E  09F4               	comf	___aldiv@dividend,f
  3211  041F  09F5               	comf	___aldiv@dividend+1,f
  3212  0420  09F6               	comf	___aldiv@dividend+2,f
  3213  0421  09F7               	comf	___aldiv@dividend+3,f
  3214  0422  0AF4               	incf	___aldiv@dividend,f
  3215  0423  1903               	skipnz
  3216  0424  0AF5               	incf	___aldiv@dividend+1,f
  3217  0425  1903               	skipnz
  3218  0426  0AF6               	incf	___aldiv@dividend+2,f
  3219  0427  1903               	skipnz
  3220  0428  0AF7               	incf	___aldiv@dividend+3,f
  3221  0429  3001               	movlw	1
  3222  042A  06F9               	xorwf	___aldiv@sign,f
  3223  042B                     l2009:	
  3224  042B  01FA               	clrf	___aldiv@quotient
  3225  042C  01FB               	clrf	___aldiv@quotient+1
  3226  042D  01FC               	clrf	___aldiv@quotient+2
  3227  042E  01FD               	clrf	___aldiv@quotient+3
  3228  042F  0873               	movf	___aldiv@divisor+3,w
  3229  0430  0472               	iorwf	___aldiv@divisor+2,w
  3230  0431  0471               	iorwf	___aldiv@divisor+1,w
  3231  0432  0470               	iorwf	___aldiv@divisor,w
  3232  0433  1903               	skipnz
  3233  0434  2C61               	goto	l2031
  3234  0435  01F8               	clrf	___aldiv@counter
  3235  0436                     L1:	
  3236  0436  0AF8               	incf	___aldiv@counter,f
  3237  0437  1BF3               	btfsc	___aldiv@divisor+3,7
  3238  0438  2C3E               	goto	l2019
  3239  0439  35F0               	lslf	___aldiv@divisor,f
  3240  043A  0DF1               	rlf	___aldiv@divisor+1,f
  3241  043B  0DF2               	rlf	___aldiv@divisor+2,f
  3242  043C  0DF3               	rlf	___aldiv@divisor+3,f
  3243  043D  2C36               	goto	L1
  3244  043E                     l2019:	
  3245  043E  35FA               	lslf	___aldiv@quotient,f
  3246  043F  0DFB               	rlf	___aldiv@quotient+1,f
  3247  0440  0DFC               	rlf	___aldiv@quotient+2,f
  3248  0441  0DFD               	rlf	___aldiv@quotient+3,f
  3249  0442  0873               	movf	___aldiv@divisor+3,w
  3250  0443  0277               	subwf	___aldiv@dividend+3,w
  3251  0444  1D03               	skipz
  3252  0445  2C50               	goto	u1465
  3253  0446  0872               	movf	___aldiv@divisor+2,w
  3254  0447  0276               	subwf	___aldiv@dividend+2,w
  3255  0448  1D03               	skipz
  3256  0449  2C50               	goto	u1465
  3257  044A  0871               	movf	___aldiv@divisor+1,w
  3258  044B  0275               	subwf	___aldiv@dividend+1,w
  3259  044C  1D03               	skipz
  3260  044D  2C50               	goto	u1465
  3261  044E  0870               	movf	___aldiv@divisor,w
  3262  044F  0274               	subwf	___aldiv@dividend,w
  3263  0450                     u1465:	
  3264  0450  1C03               	skipc
  3265  0451  2C5B               	goto	l2027
  3266  0452  0870               	movf	___aldiv@divisor,w
  3267  0453  02F4               	subwf	___aldiv@dividend,f
  3268  0454  0871               	movf	___aldiv@divisor+1,w
  3269  0455  3BF5               	subwfb	___aldiv@dividend+1,f
  3270  0456  0872               	movf	___aldiv@divisor+2,w
  3271  0457  3BF6               	subwfb	___aldiv@dividend+2,f
  3272  0458  0873               	movf	___aldiv@divisor+3,w
  3273  0459  3BF7               	subwfb	___aldiv@dividend+3,f
  3274  045A  147A               	bsf	___aldiv@quotient,0
  3275  045B                     l2027:	
  3276  045B  36F3               	lsrf	___aldiv@divisor+3,f
  3277  045C  0CF2               	rrf	___aldiv@divisor+2,f
  3278  045D  0CF1               	rrf	___aldiv@divisor+1,f
  3279  045E  0CF0               	rrf	___aldiv@divisor,f
  3280  045F  0BF8               	decfsz	___aldiv@counter,f
  3281  0460  2C3E               	goto	l2019
  3282  0461                     l2031:	
  3283  0461  0879               	movf	___aldiv@sign,w
  3284  0462  1903               	btfsc	3,2
  3285  0463  2C6F               	goto	l2035
  3286  0464  09FA               	comf	___aldiv@quotient,f
  3287  0465  09FB               	comf	___aldiv@quotient+1,f
  3288  0466  09FC               	comf	___aldiv@quotient+2,f
  3289  0467  09FD               	comf	___aldiv@quotient+3,f
  3290  0468  0AFA               	incf	___aldiv@quotient,f
  3291  0469  1903               	skipnz
  3292  046A  0AFB               	incf	___aldiv@quotient+1,f
  3293  046B  1903               	skipnz
  3294  046C  0AFC               	incf	___aldiv@quotient+2,f
  3295  046D  1903               	skipnz
  3296  046E  0AFD               	incf	___aldiv@quotient+3,f
  3297  046F                     l2035:	
  3298  046F  087D               	movf	___aldiv@quotient+3,w
  3299  0470  00F3               	movwf	?___aldiv+3
  3300  0471  087C               	movf	___aldiv@quotient+2,w
  3301  0472  00F2               	movwf	?___aldiv+2
  3302  0473  087B               	movf	___aldiv@quotient+1,w
  3303  0474  00F1               	movwf	?___aldiv+1
  3304  0475  087A               	movf	___aldiv@quotient,w
  3305  0476  00F0               	movwf	?___aldiv
  3306  0477  0008               	return
  3307  0478                     __end_of___aldiv:	
  3308                           
  3309                           	psect	text4
  3310  06A8                     __ptext4:	
  3311 ;; *************** function _ResetZigbee *****************
  3312 ;; Defined at:
  3313 ;;		line 536 in file "main_0.c"
  3314 ;; Parameters:    Size  Location     Type
  3315 ;;		None
  3316 ;; Auto vars:     Size  Location     Type
  3317 ;;  k               1    0[COMMON] unsigned char 
  3318 ;; Return value:  Size  Location     Type
  3319 ;;		None               void
  3320 ;; Registers used:
  3321 ;;		wreg, status,2, status,0
  3322 ;; Tracked objects:
  3323 ;;		On entry : 1D/0
  3324 ;;		On exit  : 1F/0
  3325 ;;		Unchanged: 0/0
  3326 ;; Data sizes:     COMMON   BANK0   BANK1
  3327 ;;      Params:         0       0       0
  3328 ;;      Locals:         1       0       0
  3329 ;;      Temps:          0       0       0
  3330 ;;      Totals:         1       0       0
  3331 ;;Total ram usage:        1 bytes
  3332 ;; Hardware stack levels used:    1
  3333 ;; Hardware stack levels required when called:    3
  3334 ;; This function calls:
  3335 ;;		Nothing
  3336 ;; This function is called by:
  3337 ;;		_SolenoidManage
  3338 ;;		_WakeUpZigbee
  3339 ;; This function uses a non-reentrant model
  3340 ;;
  3341                           
  3342                           
  3343                           ;psect for function _ResetZigbee
  3344  06A8                     _ResetZigbee:	
  3345  06A8                     l534:	
  3346                           ;incstack = 0
  3347                           ; Regs used in _ResetZigbee: [wreg+status,2+status,0]
  3348                           ;main_0.c: 538: do { LATC4 = 1; } while(0);
  3349                           
  3350  06A8  0022               	movlb	2	; select bank2
  3351  06A9  160E               	bsf	14,4	;volatile
  3352                           
  3353                           ;main_0.c: 539: for(unsigned char k=0; k< 7; k++) asm("sleep");
  3354  06AA  01F0               	clrf	ResetZigbee@k
  3355  06AB                     l536:	
  3356  06AB  0063               	sleep	;# 
  3357  06AC  3007               	movlw	7
  3358  06AD  0AF0               	incf	ResetZigbee@k,f
  3359  06AE  0270               	subwf	ResetZigbee@k,w
  3360  06AF  1C03               	skipc
  3361  06B0  2EAB               	goto	l536
  3362                           
  3363                           ;main_0.c: 540: do { LATC4 = 0; } while(0);
  3364  06B1  0022               	movlb	2	; select bank2
  3365  06B2  120E               	bcf	14,4	;volatile
  3366                           
  3367                           ;main_0.c: 541: ulgCyclesForReset=0;
  3368  06B3  0020               	movlb	0	; select bank0
  3369  06B4  01DD               	clrf	_ulgCyclesForReset
  3370  06B5  01DE               	clrf	_ulgCyclesForReset+1
  3371  06B6  01DF               	clrf	_ulgCyclesForReset+2
  3372  06B7  01E0               	clrf	_ulgCyclesForReset+3
  3373  06B8  0008               	return
  3374  06B9                     __end_of_ResetZigbee:	
  3375                           
  3376                           	psect	text5
  3377  0329                     __ptext5:	
  3378 ;; *************** function _ReadainVBatt *****************
  3379 ;; Defined at:
  3380 ;;		line 544 in file "main_0.c"
  3381 ;; Parameters:    Size  Location     Type
  3382 ;;		None
  3383 ;; Auto vars:     Size  Location     Type
  3384 ;;  k               1   24[BANK0 ] unsigned char 
  3385 ;;  sum             3   25[BANK0 ] float 
  3386 ;; Return value:  Size  Location     Type
  3387 ;;                  3   21[BANK0 ] float 
  3388 ;; Registers used:
  3389 ;;		wreg, status,2, status,0, pclath, cstack
  3390 ;; Tracked objects:
  3391 ;;		On entry : 1D/2
  3392 ;;		On exit  : 1F/0
  3393 ;;		Unchanged: 0/0
  3394 ;; Data sizes:     COMMON   BANK0   BANK1
  3395 ;;      Params:         0       3       0
  3396 ;;      Locals:         0       4       0
  3397 ;;      Temps:          0       0       0
  3398 ;;      Totals:         0       7       0
  3399 ;;Total ram usage:        7 bytes
  3400 ;; Hardware stack levels used:    1
  3401 ;; Hardware stack levels required when called:    5
  3402 ;; This function calls:
  3403 ;;		_ADC_GetConversion
  3404 ;;		___ftadd
  3405 ;;		___ftdiv
  3406 ;;		___ftmul
  3407 ;;		___lwtoft
  3408 ;; This function is called by:
  3409 ;;		_SolenoidManage
  3410 ;; This function uses a non-reentrant model
  3411 ;;
  3412                           
  3413                           
  3414                           ;psect for function _ReadainVBatt
  3415  0329                     _ReadainVBatt:	
  3416                           
  3417                           ;main_0.c: 546: float sum;
  3418                           ;main_0.c: 547: sum=0;
  3419                           
  3420                           ;incstack = 0
  3421                           ; Regs used in _ReadainVBatt: [wreg+status,2+status,0+pclath+cstack]
  3422  0329  0020               	movlb	0	; select bank0
  3423  032A  01B9               	clrf	ReadainVBatt@sum
  3424  032B  01BA               	clrf	ReadainVBatt@sum+1
  3425  032C  01BB               	clrf	ReadainVBatt@sum+2
  3426                           
  3427                           ;main_0.c: 548: for (unsigned char k=0; k<10; k++)
  3428  032D  01B8               	clrf	ReadainVBatt@k
  3429  032E                     l1957:	
  3430                           
  3431                           ;main_0.c: 549: {
  3432                           ;main_0.c: 550: sum=sum+ADC_GetConversion(ainVBatt);
  3433  032E  3004               	movlw	4
  3434  032F  2656               	fcall	_ADC_GetConversion
  3435  0330  0871               	movf	?_ADC_GetConversion+1,w
  3436  0331  00F9               	movwf	___lwtoft@c+1
  3437  0332  0870               	movf	?_ADC_GetConversion,w
  3438  0333  00F8               	movwf	___lwtoft@c
  3439  0334  26B9               	fcall	___lwtoft
  3440  0335  0878               	movf	?___lwtoft,w
  3441  0336  0020               	movlb	0	; select bank0
  3442  0337  00A9               	movwf	___ftadd@f1
  3443  0338  0879               	movf	?___lwtoft+1,w
  3444  0339  00AA               	movwf	___ftadd@f1+1
  3445  033A  087A               	movf	?___lwtoft+2,w
  3446  033B  00AB               	movwf	___ftadd@f1+2
  3447  033C  0839               	movf	ReadainVBatt@sum,w
  3448  033D  00AC               	movwf	___ftadd@f2
  3449  033E  083A               	movf	ReadainVBatt@sum+1,w
  3450  033F  00AD               	movwf	___ftadd@f2+1
  3451  0340  083B               	movf	ReadainVBatt@sum+2,w
  3452  0341  00AE               	movwf	___ftadd@f2+2
  3453  0342  2274               	fcall	___ftadd
  3454  0343  0829               	movf	?___ftadd,w
  3455  0344  00B9               	movwf	ReadainVBatt@sum
  3456  0345  082A               	movf	?___ftadd+1,w
  3457  0346  00BA               	movwf	ReadainVBatt@sum+1
  3458  0347  082B               	movf	?___ftadd+2,w
  3459  0348  00BB               	movwf	ReadainVBatt@sum+2
  3460  0349  300A               	movlw	10
  3461  034A  0AB8               	incf	ReadainVBatt@k,f
  3462  034B  0238               	subwf	ReadainVBatt@k,w
  3463  034C  1C03               	skipc
  3464  034D  2B2E               	goto	l1957
  3465                           
  3466                           ;main_0.c: 551: }
  3467                           ;main_0.c: 552: sum=sum/10;
  3468  034E  3020               	movlw	32
  3469  034F  01F8               	clrf	___ftdiv@f2
  3470  0350  00F9               	movwf	___ftdiv@f2+1
  3471  0351  3041               	movlw	65
  3472  0352  00FA               	movwf	___ftdiv@f2+2
  3473  0353  0839               	movf	ReadainVBatt@sum,w
  3474  0354  00FB               	movwf	___ftdiv@f1
  3475  0355  083A               	movf	ReadainVBatt@sum+1,w
  3476  0356  00FC               	movwf	___ftdiv@f1+1
  3477  0357  083B               	movf	ReadainVBatt@sum+2,w
  3478  0358  00FD               	movwf	___ftdiv@f1+2
  3479  0359  24E2               	fcall	___ftdiv
  3480  035A  0878               	movf	?___ftdiv,w
  3481  035B  0020               	movlb	0	; select bank0
  3482  035C  00B9               	movwf	ReadainVBatt@sum
  3483  035D  0879               	movf	?___ftdiv+1,w
  3484  035E  00BA               	movwf	ReadainVBatt@sum+1
  3485  035F  087A               	movf	?___ftdiv+2,w
  3486  0360  00BB               	movwf	ReadainVBatt@sum+2
  3487                           
  3488                           ;main_0.c: 554: sum=sum*2;
  3489  0361  3040               	movlw	64
  3490  0362  01F8               	clrf	___ftmul@f1
  3491  0363  01F9               	clrf	___ftmul@f1+1
  3492  0364  00FA               	movwf	___ftmul@f1+2
  3493  0365  0839               	movf	ReadainVBatt@sum,w
  3494  0366  00FB               	movwf	___ftmul@f2
  3495  0367  083A               	movf	ReadainVBatt@sum+1,w
  3496  0368  00FC               	movwf	___ftmul@f2+1
  3497  0369  083B               	movf	ReadainVBatt@sum+2,w
  3498  036A  00FD               	movwf	___ftmul@f2+2
  3499  036B  2478               	fcall	___ftmul
  3500  036C  0878               	movf	?___ftmul,w
  3501  036D  0020               	movlb	0	; select bank0
  3502  036E  00B9               	movwf	ReadainVBatt@sum
  3503  036F  0879               	movf	?___ftmul+1,w
  3504  0370  00BA               	movwf	ReadainVBatt@sum+1
  3505  0371  087A               	movf	?___ftmul+2,w
  3506  0372  00BB               	movwf	ReadainVBatt@sum+2
  3507                           
  3508                           ;main_0.c: 555: sum=(sum*6.5555556)+6.8;
  3509  0373  309A               	movlw	154
  3510  0374  00A9               	movwf	___ftadd@f1
  3511  0375  30D9               	movlw	217
  3512  0376  00AA               	movwf	___ftadd@f1+1
  3513  0377  3040               	movlw	64
  3514  0378  00AB               	movwf	___ftadd@f1+2
  3515  0379  30C7               	movlw	199
  3516  037A  00F8               	movwf	___ftmul@f1
  3517  037B  30D1               	movlw	209
  3518  037C  00F9               	movwf	___ftmul@f1+1
  3519  037D  3040               	movlw	64
  3520  037E  00FA               	movwf	___ftmul@f1+2
  3521  037F  0839               	movf	ReadainVBatt@sum,w
  3522  0380  00FB               	movwf	___ftmul@f2
  3523  0381  083A               	movf	ReadainVBatt@sum+1,w
  3524  0382  00FC               	movwf	___ftmul@f2+1
  3525  0383  083B               	movf	ReadainVBatt@sum+2,w
  3526  0384  00FD               	movwf	___ftmul@f2+2
  3527  0385  2478               	fcall	___ftmul
  3528  0386  0878               	movf	?___ftmul,w
  3529  0387  0020               	movlb	0	; select bank0
  3530  0388  00AC               	movwf	___ftadd@f2
  3531  0389  0879               	movf	?___ftmul+1,w
  3532  038A  00AD               	movwf	___ftadd@f2+1
  3533  038B  087A               	movf	?___ftmul+2,w
  3534  038C  00AE               	movwf	___ftadd@f2+2
  3535  038D  2274               	fcall	___ftadd
  3536  038E  0829               	movf	?___ftadd,w
  3537  038F  00B9               	movwf	ReadainVBatt@sum
  3538  0390  082A               	movf	?___ftadd+1,w
  3539  0391  00BA               	movwf	ReadainVBatt@sum+1
  3540  0392  082B               	movf	?___ftadd+2,w
  3541  0393  00BB               	movwf	ReadainVBatt@sum+2
  3542                           
  3543                           ;main_0.c: 556: return sum;
  3544  0394  0839               	movf	ReadainVBatt@sum,w
  3545  0395  00B5               	movwf	?_ReadainVBatt
  3546  0396  083A               	movf	ReadainVBatt@sum+1,w
  3547  0397  00B6               	movwf	?_ReadainVBatt+1
  3548  0398  083B               	movf	ReadainVBatt@sum+2,w
  3549  0399  00B7               	movwf	?_ReadainVBatt+2
  3550  039A  0008               	return
  3551  039B                     __end_of_ReadainVBatt:	
  3552                           
  3553                           	psect	text6
  3554  06EE                     __ptext6:	
  3555 ;; *************** function _SYSTEM_Initialize *****************
  3556 ;; Defined at:
  3557 ;;		line 67 in file "mcc_generated_files/mcc.c"
  3558 ;; Parameters:    Size  Location     Type
  3559 ;;		None
  3560 ;; Auto vars:     Size  Location     Type
  3561 ;;		None
  3562 ;; Return value:  Size  Location     Type
  3563 ;;		None               void
  3564 ;; Registers used:
  3565 ;;		wreg, status,2, status,0, pclath, cstack
  3566 ;; Tracked objects:
  3567 ;;		On entry : B1F/0
  3568 ;;		On exit  : 1F/0
  3569 ;;		Unchanged: 0/0
  3570 ;; Data sizes:     COMMON   BANK0   BANK1
  3571 ;;      Params:         0       0       0
  3572 ;;      Locals:         0       0       0
  3573 ;;      Temps:          0       0       0
  3574 ;;      Totals:         0       0       0
  3575 ;;Total ram usage:        0 bytes
  3576 ;; Hardware stack levels used:    1
  3577 ;; Hardware stack levels required when called:    5
  3578 ;; This function calls:
  3579 ;;		_ADC_Initialize
  3580 ;;		_FVR_Initialize
  3581 ;;		_OSCILLATOR_Initialize
  3582 ;;		_PIN_MANAGER_Initialize
  3583 ;;		_PWM1_Initialize
  3584 ;;		_PWM2_Initialize
  3585 ;;		_TMR0_Initialize
  3586 ;;		_TMR1_Initialize
  3587 ;;		_TMR2_Initialize
  3588 ;; This function is called by:
  3589 ;;		_main
  3590 ;; This function uses a non-reentrant model
  3591 ;;
  3592                           
  3593                           
  3594                           ;psect for function _SYSTEM_Initialize
  3595  06EE                     _SYSTEM_Initialize:	
  3596                           
  3597                           ;mcc.c: 68: OSCILLATOR_Initialize();
  3598                           
  3599                           ;incstack = 0
  3600                           ; Regs used in _SYSTEM_Initialize: [wreg+status,2+status,0+pclath+cstack]
  3601  06EE  271C               	fcall	_OSCILLATOR_Initialize
  3602                           
  3603                           ;mcc.c: 69: PIN_MANAGER_Initialize();
  3604  06EF  2630               	fcall	_PIN_MANAGER_Initialize
  3605                           
  3606                           ;mcc.c: 70: FVR_Initialize();
  3607  06F0  2721               	fcall	_FVR_Initialize
  3608                           
  3609                           ;mcc.c: 71: TMR2_Initialize();
  3610  06F1  270F               	fcall	_TMR2_Initialize
  3611                           
  3612                           ;mcc.c: 72: PWM1_Initialize();
  3613  06F2  26F7               	fcall	_PWM1_Initialize
  3614                           
  3615                           ;mcc.c: 73: PWM2_Initialize();
  3616  06F3  2716               	fcall	_PWM2_Initialize
  3617                           
  3618                           ;mcc.c: 74: ADC_Initialize();
  3619  06F4  26FF               	fcall	_ADC_Initialize
  3620                           
  3621                           ;mcc.c: 75: TMR1_Initialize();
  3622  06F5  26C9               	fcall	_TMR1_Initialize
  3623                           
  3624                           ;mcc.c: 76: TMR0_Initialize();
  3625  06F6  2EE3               	ljmp	l1941
  3626  06F7                     __end_of_SYSTEM_Initialize:	
  3627                           
  3628                           	psect	text7
  3629  070F                     __ptext7:	
  3630 ;; *************** function _TMR2_Initialize *****************
  3631 ;; Defined at:
  3632 ;;		line 58 in file "mcc_generated_files/tmr2.c"
  3633 ;; Parameters:    Size  Location     Type
  3634 ;;		None
  3635 ;; Auto vars:     Size  Location     Type
  3636 ;;		None
  3637 ;; Return value:  Size  Location     Type
  3638 ;;		None               void
  3639 ;; Registers used:
  3640 ;;		wreg, status,2, status,0, pclath, cstack
  3641 ;; Tracked objects:
  3642 ;;		On entry : B1F/2
  3643 ;;		On exit  : B1F/0
  3644 ;;		Unchanged: B00/0
  3645 ;; Data sizes:     COMMON   BANK0   BANK1
  3646 ;;      Params:         0       0       0
  3647 ;;      Locals:         0       0       0
  3648 ;;      Temps:          0       0       0
  3649 ;;      Totals:         0       0       0
  3650 ;;Total ram usage:        0 bytes
  3651 ;; Hardware stack levels used:    1
  3652 ;; Hardware stack levels required when called:    4
  3653 ;; This function calls:
  3654 ;;		_TMR2_StartTimer
  3655 ;; This function is called by:
  3656 ;;		_SYSTEM_Initialize
  3657 ;; This function uses a non-reentrant model
  3658 ;;
  3659                           
  3660                           
  3661                           ;psect for function _TMR2_Initialize
  3662  070F                     _TMR2_Initialize:	
  3663                           
  3664                           ;tmr2.c: 62: T2CON = 0x00;
  3665                           
  3666                           ;incstack = 0
  3667                           ; Regs used in _TMR2_Initialize: [wreg+status,2+status,0+pclath+cstack]
  3668  070F  0020               	movlb	0	; select bank0
  3669  0710  019C               	clrf	28	;volatile
  3670                           
  3671                           ;tmr2.c: 65: PR2 = 0x07;
  3672  0711  3007               	movlw	7
  3673  0712  009B               	movwf	27	;volatile
  3674                           
  3675                           ;tmr2.c: 68: TMR2 = 0x00;
  3676  0713  019A               	clrf	26	;volatile
  3677                           
  3678                           ;tmr2.c: 71: PIR1bits.TMR2IF = 0;
  3679  0714  1091               	bcf	17,1	;volatile
  3680                           
  3681                           ;tmr2.c: 74: TMR2_StartTimer();
  3682  0715  2F28               	ljmp	l1699
  3683  0716                     __end_of_TMR2_Initialize:	
  3684                           
  3685                           	psect	text8
  3686  0728                     __ptext8:	
  3687 ;; *************** function _TMR2_StartTimer *****************
  3688 ;; Defined at:
  3689 ;;		line 77 in file "mcc_generated_files/tmr2.c"
  3690 ;; Parameters:    Size  Location     Type
  3691 ;;		None
  3692 ;; Auto vars:     Size  Location     Type
  3693 ;;		None
  3694 ;; Return value:  Size  Location     Type
  3695 ;;		None               void
  3696 ;; Registers used:
  3697 ;;		None
  3698 ;; Tracked objects:
  3699 ;;		On entry : B1F/0
  3700 ;;		On exit  : B1F/0
  3701 ;;		Unchanged: B00/0
  3702 ;; Data sizes:     COMMON   BANK0   BANK1
  3703 ;;      Params:         0       0       0
  3704 ;;      Locals:         0       0       0
  3705 ;;      Temps:          0       0       0
  3706 ;;      Totals:         0       0       0
  3707 ;;Total ram usage:        0 bytes
  3708 ;; Hardware stack levels used:    1
  3709 ;; Hardware stack levels required when called:    3
  3710 ;; This function calls:
  3711 ;;		Nothing
  3712 ;; This function is called by:
  3713 ;;		_TMR2_Initialize
  3714 ;; This function uses a non-reentrant model
  3715 ;;
  3716                           
  3717                           
  3718                           ;psect for function _TMR2_StartTimer
  3719  0728                     _TMR2_StartTimer:	
  3720  0728                     l1699:	
  3721                           ;incstack = 0
  3722                           ; Regs used in _TMR2_StartTimer: []
  3723                           
  3724                           
  3725                           ;tmr2.c: 79: T2CONbits.TMR2ON = 1;
  3726  0728  151C               	bsf	28,2	;volatile
  3727  0729  0008               	return
  3728  072A                     __end_of_TMR2_StartTimer:	
  3729                           
  3730                           	psect	text9
  3731  06C9                     __ptext9:	
  3732 ;; *************** function _TMR1_Initialize *****************
  3733 ;; Defined at:
  3734 ;;		line 63 in file "mcc_generated_files/tmr1.c"
  3735 ;; Parameters:    Size  Location     Type
  3736 ;;		None
  3737 ;; Auto vars:     Size  Location     Type
  3738 ;;		None
  3739 ;; Return value:  Size  Location     Type
  3740 ;;		None               void
  3741 ;; Registers used:
  3742 ;;		wreg, status,2, status,0, pclath, cstack
  3743 ;; Tracked objects:
  3744 ;;		On entry : B1F/1
  3745 ;;		On exit  : 1F/0
  3746 ;;		Unchanged: 0/0
  3747 ;; Data sizes:     COMMON   BANK0   BANK1
  3748 ;;      Params:         0       0       0
  3749 ;;      Locals:         0       0       0
  3750 ;;      Temps:          0       0       0
  3751 ;;      Totals:         0       0       0
  3752 ;;Total ram usage:        0 bytes
  3753 ;; Hardware stack levels used:    1
  3754 ;; Hardware stack levels required when called:    4
  3755 ;; This function calls:
  3756 ;;		_TMR1_StartTimer
  3757 ;; This function is called by:
  3758 ;;		_SYSTEM_Initialize
  3759 ;; This function uses a non-reentrant model
  3760 ;;
  3761                           
  3762                           
  3763                           ;psect for function _TMR1_Initialize
  3764  06C9                     _TMR1_Initialize:	
  3765                           
  3766                           ;tmr1.c: 67: T1CON = 0x00;
  3767                           
  3768                           ;incstack = 0
  3769                           ; Regs used in _TMR1_Initialize: [wreg+status,2+status,0+pclath+cstack]
  3770  06C9  0020               	movlb	0	; select bank0
  3771  06CA  0198               	clrf	24	;volatile
  3772                           
  3773                           ;tmr1.c: 70: T1GCON = 0x00;
  3774  06CB  0199               	clrf	25	;volatile
  3775                           
  3776                           ;tmr1.c: 73: TMR1H = 0xFD;
  3777  06CC  30FD               	movlw	253
  3778  06CD  0097               	movwf	23	;volatile
  3779                           
  3780                           ;tmr1.c: 76: TMR1L = 0x00;
  3781  06CE  0196               	clrf	22	;volatile
  3782                           
  3783                           ;tmr1.c: 79: timer1ReloadVal = (TMR1H << 8) | TMR1L;
  3784  06CF  0817               	movf	23,w	;volatile
  3785  06D0  00E5               	movwf	_timer1ReloadVal+1	;volatile
  3786  06D1  01E4               	clrf	_timer1ReloadVal	;volatile
  3787  06D2  0816               	movf	22,w	;volatile
  3788  06D3  04E4               	iorwf	_timer1ReloadVal,f	;volatile
  3789                           
  3790                           ;tmr1.c: 82: PIR1bits.TMR1IF = 0;
  3791  06D4  1011               	bcf	17,0	;volatile
  3792                           
  3793                           ;tmr1.c: 85: PIE1bits.TMR1IE = 1;
  3794  06D5  0021               	movlb	1	; select bank1
  3795  06D6  1411               	bsf	17,0	;volatile
  3796                           
  3797                           ;tmr1.c: 88: TMR1_StartTimer();
  3798  06D7  2F25               	ljmp	l1701
  3799  06D8                     __end_of_TMR1_Initialize:	
  3800                           
  3801                           	psect	text10
  3802  0725                     __ptext10:	
  3803 ;; *************** function _TMR1_StartTimer *****************
  3804 ;; Defined at:
  3805 ;;		line 91 in file "mcc_generated_files/tmr1.c"
  3806 ;; Parameters:    Size  Location     Type
  3807 ;;		None
  3808 ;; Auto vars:     Size  Location     Type
  3809 ;;		None
  3810 ;; Return value:  Size  Location     Type
  3811 ;;		None               void
  3812 ;; Registers used:
  3813 ;;		None
  3814 ;; Tracked objects:
  3815 ;;		On entry : B1F/1
  3816 ;;		On exit  : B1F/0
  3817 ;;		Unchanged: B00/0
  3818 ;; Data sizes:     COMMON   BANK0   BANK1
  3819 ;;      Params:         0       0       0
  3820 ;;      Locals:         0       0       0
  3821 ;;      Temps:          0       0       0
  3822 ;;      Totals:         0       0       0
  3823 ;;Total ram usage:        0 bytes
  3824 ;; Hardware stack levels used:    1
  3825 ;; Hardware stack levels required when called:    3
  3826 ;; This function calls:
  3827 ;;		Nothing
  3828 ;; This function is called by:
  3829 ;;		_TMR1_Initialize
  3830 ;; This function uses a non-reentrant model
  3831 ;;
  3832                           
  3833                           
  3834                           ;psect for function _TMR1_StartTimer
  3835  0725                     _TMR1_StartTimer:	
  3836  0725                     l1701:	
  3837                           ;incstack = 0
  3838                           ; Regs used in _TMR1_StartTimer: []
  3839                           
  3840                           
  3841                           ;tmr1.c: 93: T1CONbits.TMR1ON = 1;
  3842  0725  0020               	movlb	0	; select bank0
  3843  0726  1418               	bsf	24,0	;volatile
  3844  0727  0008               	return
  3845  0728                     __end_of_TMR1_StartTimer:	
  3846                           
  3847                           	psect	text11
  3848  06E3                     __ptext11:	
  3849 ;; *************** function _TMR0_Initialize *****************
  3850 ;; Defined at:
  3851 ;;		line 64 in file "mcc_generated_files/tmr0.c"
  3852 ;; Parameters:    Size  Location     Type
  3853 ;;		None
  3854 ;; Auto vars:     Size  Location     Type
  3855 ;;		None
  3856 ;; Return value:  Size  Location     Type
  3857 ;;		None               void
  3858 ;; Registers used:
  3859 ;;		wreg, status,2
  3860 ;; Tracked objects:
  3861 ;;		On entry : 1F/0
  3862 ;;		On exit  : 1F/0
  3863 ;;		Unchanged: 0/0
  3864 ;; Data sizes:     COMMON   BANK0   BANK1
  3865 ;;      Params:         0       0       0
  3866 ;;      Locals:         0       0       0
  3867 ;;      Temps:          0       0       0
  3868 ;;      Totals:         0       0       0
  3869 ;;Total ram usage:        0 bytes
  3870 ;; Hardware stack levels used:    1
  3871 ;; Hardware stack levels required when called:    3
  3872 ;; This function calls:
  3873 ;;		Nothing
  3874 ;; This function is called by:
  3875 ;;		_SYSTEM_Initialize
  3876 ;; This function uses a non-reentrant model
  3877 ;;
  3878                           
  3879                           
  3880                           ;psect for function _TMR0_Initialize
  3881  06E3                     _TMR0_Initialize:	
  3882  06E3                     l1941:	
  3883                           ;incstack = 0
  3884                           ; Regs used in _TMR0_Initialize: [wreg+status,2]
  3885                           
  3886                           
  3887                           ;tmr0.c: 68: OPTION_REG = (OPTION_REG & 0xC0) | 0xD7 & 0x3F;
  3888  06E3  0021               	movlb	1	; select bank1
  3889  06E4  0815               	movf	21,w	;volatile
  3890  06E5  39C0               	andlw	192
  3891  06E6  3817               	iorlw	23
  3892  06E7  0095               	movwf	21	;volatile
  3893                           
  3894                           ;tmr0.c: 71: TMR0 = 0x80;
  3895  06E8  3080               	movlw	128
  3896  06E9  0020               	movlb	0	; select bank0
  3897  06EA  0095               	movwf	21	;volatile
  3898                           
  3899                           ;tmr0.c: 74: timer0ReloadVal = 128;
  3900  06EB  00E6               	movwf	_timer0ReloadVal	;volatile
  3901                           
  3902                           ;tmr0.c: 77: INTCONbits.TMR0IF = 0;
  3903  06EC  110B               	bcf	11,2	;volatile
  3904  06ED  0008               	return
  3905  06EE                     __end_of_TMR0_Initialize:	
  3906                           
  3907                           	psect	text12
  3908  0716                     __ptext12:	
  3909 ;; *************** function _PWM2_Initialize *****************
  3910 ;; Defined at:
  3911 ;;		line 58 in file "mcc_generated_files/pwm2.c"
  3912 ;; Parameters:    Size  Location     Type
  3913 ;;		None
  3914 ;; Auto vars:     Size  Location     Type
  3915 ;;		None
  3916 ;; Return value:  Size  Location     Type
  3917 ;;		None               void
  3918 ;; Registers used:
  3919 ;;		wreg, status,2
  3920 ;; Tracked objects:
  3921 ;;		On entry : B1F/C
  3922 ;;		On exit  : B1F/C
  3923 ;;		Unchanged: B00/0
  3924 ;; Data sizes:     COMMON   BANK0   BANK1
  3925 ;;      Params:         0       0       0
  3926 ;;      Locals:         0       0       0
  3927 ;;      Temps:          0       0       0
  3928 ;;      Totals:         0       0       0
  3929 ;;Total ram usage:        0 bytes
  3930 ;; Hardware stack levels used:    1
  3931 ;; Hardware stack levels required when called:    3
  3932 ;; This function calls:
  3933 ;;		Nothing
  3934 ;; This function is called by:
  3935 ;;		_SYSTEM_Initialize
  3936 ;; This function uses a non-reentrant model
  3937 ;;
  3938                           
  3939                           
  3940                           ;psect for function _PWM2_Initialize
  3941  0716                     _PWM2_Initialize:	
  3942                           
  3943                           ;pwm2.c: 61: PWM2CON = 0x00;
  3944                           
  3945                           ;incstack = 0
  3946                           ; Regs used in _PWM2_Initialize: [wreg+status,2]
  3947  0716  0196               	clrf	22	;volatile
  3948                           
  3949                           ;pwm2.c: 64: PWM2DCH = 0x03;
  3950  0717  3003               	movlw	3
  3951  0718  0095               	movwf	21	;volatile
  3952                           
  3953                           ;pwm2.c: 67: PWM2DCL = 0xC0;
  3954  0719  30C0               	movlw	192
  3955  071A  0094               	movwf	20	;volatile
  3956  071B  0008               	return
  3957  071C                     __end_of_PWM2_Initialize:	
  3958                           
  3959                           	psect	text13
  3960  06F7                     __ptext13:	
  3961 ;; *************** function _PWM1_Initialize *****************
  3962 ;; Defined at:
  3963 ;;		line 58 in file "mcc_generated_files/pwm1.c"
  3964 ;; Parameters:    Size  Location     Type
  3965 ;;		None
  3966 ;; Auto vars:     Size  Location     Type
  3967 ;;		None
  3968 ;; Return value:  Size  Location     Type
  3969 ;;		None               void
  3970 ;; Registers used:
  3971 ;;		wreg
  3972 ;; Tracked objects:
  3973 ;;		On entry : B1F/0
  3974 ;;		On exit  : B1F/C
  3975 ;;		Unchanged: B00/0
  3976 ;; Data sizes:     COMMON   BANK0   BANK1
  3977 ;;      Params:         0       0       0
  3978 ;;      Locals:         0       0       0
  3979 ;;      Temps:          0       0       0
  3980 ;;      Totals:         0       0       0
  3981 ;;Total ram usage:        0 bytes
  3982 ;; Hardware stack levels used:    1
  3983 ;; Hardware stack levels required when called:    3
  3984 ;; This function calls:
  3985 ;;		Nothing
  3986 ;; This function is called by:
  3987 ;;		_SYSTEM_Initialize
  3988 ;; This function uses a non-reentrant model
  3989 ;;
  3990                           
  3991                           
  3992                           ;psect for function _PWM1_Initialize
  3993  06F7                     _PWM1_Initialize:	
  3994                           
  3995                           ;pwm1.c: 61: PWM1CON = 0x80;
  3996                           
  3997                           ;incstack = 0
  3998                           ; Regs used in _PWM1_Initialize: [wreg]
  3999  06F7  3080               	movlw	128
  4000  06F8  002C               	movlb	12	; select bank12
  4001  06F9  0093               	movwf	19	;volatile
  4002                           
  4003                           ;pwm1.c: 64: PWM1DCH = 0x03;
  4004  06FA  3003               	movlw	3
  4005  06FB  0092               	movwf	18	;volatile
  4006                           
  4007                           ;pwm1.c: 67: PWM1DCL = 0xC0;
  4008  06FC  30C0               	movlw	192
  4009  06FD  0091               	movwf	17	;volatile
  4010  06FE  0008               	return
  4011  06FF                     __end_of_PWM1_Initialize:	
  4012                           
  4013                           	psect	text14
  4014  0630                     __ptext14:	
  4015 ;; *************** function _PIN_MANAGER_Initialize *****************
  4016 ;; Defined at:
  4017 ;;		line 54 in file "mcc_generated_files/pin_manager.c"
  4018 ;; Parameters:    Size  Location     Type
  4019 ;;		None
  4020 ;; Auto vars:     Size  Location     Type
  4021 ;;		None
  4022 ;; Return value:  Size  Location     Type
  4023 ;;		None               void
  4024 ;; Registers used:
  4025 ;;		wreg, status,2
  4026 ;; Tracked objects:
  4027 ;;		On entry : B1F/1
  4028 ;;		On exit  : B1F/7
  4029 ;;		Unchanged: B00/0
  4030 ;; Data sizes:     COMMON   BANK0   BANK1
  4031 ;;      Params:         0       0       0
  4032 ;;      Locals:         0       0       0
  4033 ;;      Temps:          0       0       0
  4034 ;;      Totals:         0       0       0
  4035 ;;Total ram usage:        0 bytes
  4036 ;; Hardware stack levels used:    1
  4037 ;; Hardware stack levels required when called:    3
  4038 ;; This function calls:
  4039 ;;		Nothing
  4040 ;; This function is called by:
  4041 ;;		_SYSTEM_Initialize
  4042 ;; This function uses a non-reentrant model
  4043 ;;
  4044                           
  4045                           
  4046                           ;psect for function _PIN_MANAGER_Initialize
  4047  0630                     _PIN_MANAGER_Initialize:	
  4048                           
  4049                           ;pin_manager.c: 55: LATA = 0x20;
  4050                           
  4051                           ;incstack = 0
  4052                           ; Regs used in _PIN_MANAGER_Initialize: [wreg+status,2]
  4053  0630  3020               	movlw	32
  4054  0631  0022               	movlb	2	; select bank2
  4055  0632  008C               	movwf	12	;volatile
  4056                           
  4057                           ;pin_manager.c: 56: TRISA = 0x1F;
  4058  0633  301F               	movlw	31
  4059  0634  0021               	movlb	1	; select bank1
  4060  0635  008C               	movwf	12	;volatile
  4061                           
  4062                           ;pin_manager.c: 57: ANSELA = 0x03;
  4063  0636  3003               	movlw	3
  4064  0637  0023               	movlb	3	; select bank3
  4065  0638  008C               	movwf	12	;volatile
  4066                           
  4067                           ;pin_manager.c: 58: WPUA = 0x00;
  4068  0639  0024               	movlb	4	; select bank4
  4069  063A  018C               	clrf	12	;volatile
  4070                           
  4071                           ;pin_manager.c: 60: LATB = 0x00;
  4072  063B  0022               	movlb	2	; select bank2
  4073  063C  018D               	clrf	13	;volatile
  4074                           
  4075                           ;pin_manager.c: 61: TRISB = 0x30;
  4076  063D  3030               	movlw	48
  4077  063E  0021               	movlb	1	; select bank1
  4078  063F  008D               	movwf	13	;volatile
  4079                           
  4080                           ;pin_manager.c: 62: ANSELB = 0x00;
  4081  0640  0023               	movlb	3	; select bank3
  4082  0641  018D               	clrf	13	;volatile
  4083                           
  4084                           ;pin_manager.c: 63: WPUB = 0x00;
  4085  0642  0024               	movlb	4	; select bank4
  4086  0643  018D               	clrf	13	;volatile
  4087                           
  4088                           ;pin_manager.c: 65: LATC = 0x80;
  4089  0644  3080               	movlw	128
  4090  0645  0022               	movlb	2	; select bank2
  4091  0646  008E               	movwf	14	;volatile
  4092                           
  4093                           ;pin_manager.c: 66: TRISC = 0x49;
  4094  0647  3049               	movlw	73
  4095  0648  0021               	movlb	1	; select bank1
  4096  0649  008E               	movwf	14	;volatile
  4097                           
  4098                           ;pin_manager.c: 67: ANSELC = 0x41;
  4099  064A  3041               	movlw	65
  4100  064B  0023               	movlb	3	; select bank3
  4101  064C  008E               	movwf	14	;volatile
  4102                           
  4103                           ;pin_manager.c: 69: OPTION_REGbits.nWPUEN = 0x01;
  4104  064D  0021               	movlb	1	; select bank1
  4105  064E  1795               	bsf	21,7	;volatile
  4106                           
  4107                           ;pin_manager.c: 71: APFCON = 0x00;
  4108  064F  0022               	movlb	2	; select bank2
  4109  0650  019D               	clrf	29	;volatile
  4110                           
  4111                           ;pin_manager.c: 74: IOCAN2 = 1;
  4112  0651  0027               	movlb	7	; select bank7
  4113  0652  1512               	bsf	18,2	;volatile
  4114                           
  4115                           ;pin_manager.c: 75: IOCAP2 = 1;
  4116  0653  1511               	bsf	17,2	;volatile
  4117                           
  4118                           ;pin_manager.c: 78: INTCONbits.IOCIE = 1;
  4119  0654  158B               	bsf	11,3	;volatile
  4120  0655  0008               	return
  4121  0656                     __end_of_PIN_MANAGER_Initialize:	
  4122                           
  4123                           	psect	text15
  4124  071C                     __ptext15:	
  4125 ;; *************** function _OSCILLATOR_Initialize *****************
  4126 ;; Defined at:
  4127 ;;		line 79 in file "mcc_generated_files/mcc.c"
  4128 ;; Parameters:    Size  Location     Type
  4129 ;;		None
  4130 ;; Auto vars:     Size  Location     Type
  4131 ;;		None
  4132 ;; Return value:  Size  Location     Type
  4133 ;;		None               void
  4134 ;; Registers used:
  4135 ;;		wreg, status,2
  4136 ;; Tracked objects:
  4137 ;;		On entry : B1F/0
  4138 ;;		On exit  : B1F/1
  4139 ;;		Unchanged: B00/0
  4140 ;; Data sizes:     COMMON   BANK0   BANK1
  4141 ;;      Params:         0       0       0
  4142 ;;      Locals:         0       0       0
  4143 ;;      Temps:          0       0       0
  4144 ;;      Totals:         0       0       0
  4145 ;;Total ram usage:        0 bytes
  4146 ;; Hardware stack levels used:    1
  4147 ;; Hardware stack levels required when called:    3
  4148 ;; This function calls:
  4149 ;;		Nothing
  4150 ;; This function is called by:
  4151 ;;		_SYSTEM_Initialize
  4152 ;; This function uses a non-reentrant model
  4153 ;;
  4154                           
  4155                           
  4156                           ;psect for function _OSCILLATOR_Initialize
  4157  071C                     _OSCILLATOR_Initialize:	
  4158                           
  4159                           ;mcc.c: 81: OSCCON = 0x02;
  4160                           
  4161                           ;incstack = 0
  4162                           ; Regs used in _OSCILLATOR_Initialize: [wreg+status,2]
  4163  071C  3002               	movlw	2
  4164  071D  0021               	movlb	1	; select bank1
  4165  071E  0099               	movwf	25	;volatile
  4166                           
  4167                           ;mcc.c: 83: OSCSTAT = 0x00;
  4168  071F  019A               	clrf	26	;volatile
  4169  0720  0008               	return
  4170  0721                     __end_of_OSCILLATOR_Initialize:	
  4171                           
  4172                           	psect	text16
  4173  0721                     __ptext16:	
  4174 ;; *************** function _FVR_Initialize *****************
  4175 ;; Defined at:
  4176 ;;		line 58 in file "mcc_generated_files/fvr.c"
  4177 ;; Parameters:    Size  Location     Type
  4178 ;;		None
  4179 ;; Auto vars:     Size  Location     Type
  4180 ;;		None
  4181 ;; Return value:  Size  Location     Type
  4182 ;;		None               void
  4183 ;; Registers used:
  4184 ;;		wreg
  4185 ;; Tracked objects:
  4186 ;;		On entry : B1F/7
  4187 ;;		On exit  : B1F/2
  4188 ;;		Unchanged: B00/0
  4189 ;; Data sizes:     COMMON   BANK0   BANK1
  4190 ;;      Params:         0       0       0
  4191 ;;      Locals:         0       0       0
  4192 ;;      Temps:          0       0       0
  4193 ;;      Totals:         0       0       0
  4194 ;;Total ram usage:        0 bytes
  4195 ;; Hardware stack levels used:    1
  4196 ;; Hardware stack levels required when called:    3
  4197 ;; This function calls:
  4198 ;;		Nothing
  4199 ;; This function is called by:
  4200 ;;		_SYSTEM_Initialize
  4201 ;; This function uses a non-reentrant model
  4202 ;;
  4203                           
  4204                           
  4205                           ;psect for function _FVR_Initialize
  4206  0721                     _FVR_Initialize:	
  4207                           
  4208                           ;fvr.c: 60: FVRCON = 0xA2;
  4209                           
  4210                           ;incstack = 0
  4211                           ; Regs used in _FVR_Initialize: [wreg]
  4212  0721  30A2               	movlw	162
  4213  0722  0022               	movlb	2	; select bank2
  4214  0723  0097               	movwf	23	;volatile
  4215  0724  0008               	return
  4216  0725                     __end_of_FVR_Initialize:	
  4217                           
  4218                           	psect	text17
  4219  06FF                     __ptext17:	
  4220 ;; *************** function _ADC_Initialize *****************
  4221 ;; Defined at:
  4222 ;;		line 65 in file "mcc_generated_files/adc.c"
  4223 ;; Parameters:    Size  Location     Type
  4224 ;;		None
  4225 ;; Auto vars:     Size  Location     Type
  4226 ;;		None
  4227 ;; Return value:  Size  Location     Type
  4228 ;;		None               void
  4229 ;; Registers used:
  4230 ;;		wreg, status,2
  4231 ;; Tracked objects:
  4232 ;;		On entry : B1F/C
  4233 ;;		On exit  : B1F/1
  4234 ;;		Unchanged: B00/0
  4235 ;; Data sizes:     COMMON   BANK0   BANK1
  4236 ;;      Params:         0       0       0
  4237 ;;      Locals:         0       0       0
  4238 ;;      Temps:          0       0       0
  4239 ;;      Totals:         0       0       0
  4240 ;;Total ram usage:        0 bytes
  4241 ;; Hardware stack levels used:    1
  4242 ;; Hardware stack levels required when called:    3
  4243 ;; This function calls:
  4244 ;;		Nothing
  4245 ;; This function is called by:
  4246 ;;		_SYSTEM_Initialize
  4247 ;; This function uses a non-reentrant model
  4248 ;;
  4249                           
  4250                           
  4251                           ;psect for function _ADC_Initialize
  4252  06FF                     _ADC_Initialize:	
  4253                           
  4254                           ;adc.c: 69: ADCON0 = 0x01;
  4255                           
  4256                           ;incstack = 0
  4257                           ; Regs used in _ADC_Initialize: [wreg+status,2]
  4258  06FF  3001               	movlw	1
  4259  0700  0021               	movlb	1	; select bank1
  4260  0701  009D               	movwf	29	;volatile
  4261                           
  4262                           ;adc.c: 72: ADCON1 = 0x00;
  4263  0702  019E               	clrf	30	;volatile
  4264                           
  4265                           ;adc.c: 75: ADCON2 = 0x00;
  4266  0703  019F               	clrf	31	;volatile
  4267                           
  4268                           ;adc.c: 78: ADRESL = 0x00;
  4269  0704  019B               	clrf	27	;volatile
  4270                           
  4271                           ;adc.c: 81: ADRESH = 0x00;
  4272  0705  019C               	clrf	28	;volatile
  4273  0706  0008               	return
  4274  0707                     __end_of_ADC_Initialize:	
  4275                           
  4276                           	psect	text18
  4277  066D                     __ptext18:	
  4278 ;; *************** function _PWM1_LoadDutyValue *****************
  4279 ;; Defined at:
  4280 ;;		line 71 in file "mcc_generated_files/pwm1.c"
  4281 ;; Parameters:    Size  Location     Type
  4282 ;;  dutyValue       2    0[COMMON] unsigned int 
  4283 ;; Auto vars:     Size  Location     Type
  4284 ;;		None
  4285 ;; Return value:  Size  Location     Type
  4286 ;;		None               void
  4287 ;; Registers used:
  4288 ;;		wreg, status,2, status,0
  4289 ;; Tracked objects:
  4290 ;;		On entry : 1F/0
  4291 ;;		On exit  : 1F/C
  4292 ;;		Unchanged: 0/0
  4293 ;; Data sizes:     COMMON   BANK0   BANK1
  4294 ;;      Params:         2       0       0
  4295 ;;      Locals:         0       0       0
  4296 ;;      Temps:          2       0       0
  4297 ;;      Totals:         4       0       0
  4298 ;;Total ram usage:        4 bytes
  4299 ;; Hardware stack levels used:    1
  4300 ;; Hardware stack levels required when called:    3
  4301 ;; This function calls:
  4302 ;;		Nothing
  4303 ;; This function is called by:
  4304 ;;		_main
  4305 ;; This function uses a non-reentrant model
  4306 ;;
  4307                           
  4308                           
  4309                           ;psect for function _PWM1_LoadDutyValue
  4310  066D                     _PWM1_LoadDutyValue:	
  4311                           
  4312                           ;pwm1.c: 73: PWM1DCH = (dutyValue & 0x03FC) >> 2;
  4313                           
  4314                           ;incstack = 0
  4315                           ; Regs used in _PWM1_LoadDutyValue: [wreg+status,2+status,0]
  4316  066D  0871               	movf	PWM1_LoadDutyValue@dutyValue+1,w
  4317  066E  00F3               	movwf	??_PWM1_LoadDutyValue+1
  4318  066F  0870               	movf	PWM1_LoadDutyValue@dutyValue,w
  4319  0670  00F2               	movwf	??_PWM1_LoadDutyValue
  4320  0671  36F3               	lsrf	??_PWM1_LoadDutyValue+1,f
  4321  0672  0CF2               	rrf	??_PWM1_LoadDutyValue,f
  4322  0673  36F3               	lsrf	??_PWM1_LoadDutyValue+1,f
  4323  0674  0CF2               	rrf	??_PWM1_LoadDutyValue,f
  4324  0675  0872               	movf	??_PWM1_LoadDutyValue,w
  4325  0676  002C               	movlb	12	; select bank12
  4326  0677  0092               	movwf	18	;volatile
  4327                           
  4328                           ;pwm1.c: 76: PWM1DCL = (dutyValue & 0x0003) << 6;
  4329  0678  0870               	movf	PWM1_LoadDutyValue@dutyValue,w
  4330  0679  3903               	andlw	3
  4331  067A  00F2               	movwf	??_PWM1_LoadDutyValue
  4332  067B  0CF2               	rrf	??_PWM1_LoadDutyValue,f
  4333  067C  0CF2               	rrf	??_PWM1_LoadDutyValue,f
  4334  067D  0C72               	rrf	??_PWM1_LoadDutyValue,w
  4335  067E  39C0               	andlw	192
  4336  067F  0091               	movwf	17	;volatile
  4337  0680  0008               	return
  4338  0681                     __end_of_PWM1_LoadDutyValue:	
  4339                           
  4340                           	psect	text19
  4341  05DF                     __ptext19:	
  4342 ;; *************** function _LEDsManage *****************
  4343 ;; Defined at:
  4344 ;;		line 433 in file "main_0.c"
  4345 ;; Parameters:    Size  Location     Type
  4346 ;;		None
  4347 ;; Auto vars:     Size  Location     Type
  4348 ;;  ulgCyclesFor    4   34[BANK0 ] unsigned long 
  4349 ;;  intLedsOffTi    1    0        unsigned char 
  4350 ;;  intLedsOnTim    1   38[BANK0 ] unsigned char 
  4351 ;; Return value:  Size  Location     Type
  4352 ;;		None               void
  4353 ;; Registers used:
  4354 ;;		wreg, status,2, status,0, pclath, cstack
  4355 ;; Tracked objects:
  4356 ;;		On entry : 0/2
  4357 ;;		On exit  : 1D/0
  4358 ;;		Unchanged: 0/0
  4359 ;; Data sizes:     COMMON   BANK0   BANK1
  4360 ;;      Params:         0       0       0
  4361 ;;      Locals:         0       6       0
  4362 ;;      Temps:          0       0       0
  4363 ;;      Totals:         0       6       0
  4364 ;;Total ram usage:        6 bytes
  4365 ;; Hardware stack levels used:    1
  4366 ;; Hardware stack levels required when called:    6
  4367 ;; This function calls:
  4368 ;;		_ReadPHVVoltage
  4369 ;;		___ftge
  4370 ;; This function is called by:
  4371 ;;		_main
  4372 ;; This function uses a non-reentrant model
  4373 ;;
  4374                           
  4375                           
  4376                           ;psect for function _LEDsManage
  4377  05DF                     _LEDsManage:	
  4378                           
  4379                           ;main_0.c: 445: unsigned char intLedsOnTime=0;
  4380                           
  4381                           ;incstack = 0
  4382                           ; Regs used in _LEDsManage: [wreg+status,2+status,0+pclath+cstack]
  4383  05DF  0020               	movlb	0	; select bank0
  4384  05E0  01C6               	clrf	LEDsManage@intLedsOnTime
  4385                           
  4386                           ;main_0.c: 447: unsigned long ulgCyclesForLEDs=0;
  4387  05E1  01C2               	clrf	LEDsManage@ulgCyclesForLEDs
  4388  05E2  01C3               	clrf	LEDsManage@ulgCyclesForLEDs+1
  4389  05E3  01C4               	clrf	LEDsManage@ulgCyclesForLEDs+2
  4390  05E4  01C5               	clrf	LEDsManage@ulgCyclesForLEDs+3
  4391                           
  4392                           ;main_0.c: 448: if (RB5)
  4393  05E5  1E8D               	btfss	13,5	;volatile
  4394  05E6  2E07               	goto	l512
  4395                           
  4396                           ;main_0.c: 449: {
  4397                           ;main_0.c: 451: if ((ReadPHVVoltage() > 15.1)&&(ulgCyclesForLEDs < 108000L))
  4398  05E7  309A               	movlw	154
  4399  05E8  00BC               	movwf	___ftge@ff1
  4400  05E9  3071               	movlw	113
  4401  05EA  00BD               	movwf	___ftge@ff1+1
  4402  05EB  3041               	movlw	65
  4403  05EC  00BE               	movwf	___ftge@ff1+2
  4404  05ED  239B               	fcall	_ReadPHVVoltage
  4405  05EE  0835               	movf	?_ReadPHVVoltage,w
  4406  05EF  00BF               	movwf	___ftge@ff2
  4407  05F0  0836               	movf	?_ReadPHVVoltage+1,w
  4408  05F1  00C0               	movwf	___ftge@ff2+1
  4409  05F2  0837               	movf	?_ReadPHVVoltage+2,w
  4410  05F3  00C1               	movwf	___ftge@ff2+2
  4411  05F4  25B3               	fcall	___ftge
  4412  05F5  1803               	btfsc	3,0
  4413  05F6  0008               	return
  4414                           
  4415                           ;main_0.c: 452: {
  4416                           ;main_0.c: 453: ulgCyclesForLEDs++ ;
  4417  05F7  3001               	movlw	1
  4418  05F8  07C2               	addwf	LEDsManage@ulgCyclesForLEDs,f
  4419  05F9  3000               	movlw	0
  4420  05FA  3DC3               	addwfc	LEDsManage@ulgCyclesForLEDs+1,f
  4421  05FB  3DC4               	addwfc	LEDsManage@ulgCyclesForLEDs+2,f
  4422  05FC  3DC5               	addwfc	LEDsManage@ulgCyclesForLEDs+3,f
  4423                           
  4424                           ;main_0.c: 454: if (RC3)
  4425  05FD  1D8E               	btfss	14,3	;volatile
  4426  05FE  2E04               	goto	l509
  4427                           
  4428                           ;main_0.c: 457: if (intLedsOnTime < 2)
  4429                           ;main_0.c: 458: {
  4430                           ;main_0.c: 459: do { LATC3 = 1; } while(0);
  4431  05FF  0022               	movlb	2	; select bank2
  4432  0600  158E               	bsf	14,3	;volatile
  4433                           
  4434                           ;main_0.c: 460: intLedsOnTime++;
  4435  0601  0020               	movlb	0	; select bank0
  4436  0602  0AC6               	incf	LEDsManage@intLedsOnTime,f
  4437                           
  4438                           ;main_0.c: 462: }else if (intLedsOffTime < 3)
  4439  0603  0008               	return
  4440  0604                     l509:	
  4441                           ;main_0.c: 472: else
  4442                           ;main_0.c: 473: {
  4443                           ;main_0.c: 474: do { LATC3 = 0; } while(0);
  4444                           
  4445  0604  0022               	movlb	2	; select bank2
  4446  0605  118E               	bcf	14,3	;volatile
  4447  0606  0008               	return
  4448  0607                     l512:	
  4449                           ;main_0.c: 484: do { LATC3 = 0; } while(0);
  4450                           
  4451  0607  0022               	movlb	2	; select bank2
  4452  0608  118E               	bcf	14,3	;volatile
  4453  0609  0008               	return
  4454  060A                     __end_of_LEDsManage:	
  4455                           
  4456                           	psect	text20
  4457  05B3                     __ptext20:	
  4458 ;; *************** function ___ftge *****************
  4459 ;; Defined at:
  4460 ;;		line 4 in file "C:\Program Files (x86)\Microchip\xc8\v1.34\sources\common\ftge.c"
  4461 ;; Parameters:    Size  Location     Type
  4462 ;;  ff1             3   28[BANK0 ] float 
  4463 ;;  ff2             3   31[BANK0 ] float 
  4464 ;; Auto vars:     Size  Location     Type
  4465 ;;		None
  4466 ;; Return value:  Size  Location     Type
  4467 ;;		None               void
  4468 ;; Registers used:
  4469 ;;		wreg, status,2, status,0
  4470 ;; Tracked objects:
  4471 ;;		On entry : 1F/0
  4472 ;;		On exit  : 1F/0
  4473 ;;		Unchanged: 0/0
  4474 ;; Data sizes:     COMMON   BANK0   BANK1
  4475 ;;      Params:         0       6       0
  4476 ;;      Locals:         0       0       0
  4477 ;;      Temps:          0       0       0
  4478 ;;      Totals:         0       6       0
  4479 ;;Total ram usage:        6 bytes
  4480 ;; Hardware stack levels used:    1
  4481 ;; Hardware stack levels required when called:    3
  4482 ;; This function calls:
  4483 ;;		Nothing
  4484 ;; This function is called by:
  4485 ;;		_SolenoidManage
  4486 ;;		_LEDsManage
  4487 ;;		_WakeUpZigbee
  4488 ;; This function uses a non-reentrant model
  4489 ;;
  4490                           
  4491                           
  4492                           ;psect for function ___ftge
  4493  05B3                     ___ftge:	
  4494                           
  4495                           ;incstack = 0
  4496                           ; Regs used in ___ftge: [wreg+status,2+status,0]
  4497  05B3  1FBE               	btfss	___ftge@ff1+2,7
  4498  05B4  2DC2               	goto	l2043
  4499  05B5  083C               	movf	___ftge@ff1,w
  4500  05B6  3C00               	sublw	0
  4501  05B7  00BC               	movwf	___ftge@ff1
  4502  05B8  083D               	movf	___ftge@ff1+1,w
  4503  05B9  1C03               	skipc
  4504  05BA  0F3D               	incfsz	___ftge@ff1+1,w
  4505  05BB  3C00               	sublw	0
  4506  05BC  00BD               	movwf	___ftge@ff1+1
  4507  05BD  083E               	movf	___ftge@ff1+2,w
  4508  05BE  1C03               	skipc
  4509  05BF  0F3E               	incfsz	___ftge@ff1+2,w
  4510  05C0  3C80               	sublw	128
  4511  05C1  00BE               	movwf	___ftge@ff1+2
  4512  05C2                     l2043:	
  4513  05C2  1FC1               	btfss	___ftge@ff2+2,7
  4514  05C3  2DD1               	goto	l2047
  4515  05C4  083F               	movf	___ftge@ff2,w
  4516  05C5  3C00               	sublw	0
  4517  05C6  00BF               	movwf	___ftge@ff2
  4518  05C7  0840               	movf	___ftge@ff2+1,w
  4519  05C8  1C03               	skipc
  4520  05C9  0F40               	incfsz	___ftge@ff2+1,w
  4521  05CA  3C00               	sublw	0
  4522  05CB  00C0               	movwf	___ftge@ff2+1
  4523  05CC  0841               	movf	___ftge@ff2+2,w
  4524  05CD  1C03               	skipc
  4525  05CE  0F41               	incfsz	___ftge@ff2+2,w
  4526  05CF  3C80               	sublw	128
  4527  05D0  00C1               	movwf	___ftge@ff2+2
  4528  05D1                     l2047:	
  4529  05D1  3080               	movlw	128
  4530  05D2  06BE               	xorwf	___ftge@ff1+2,f
  4531  05D3  06C1               	xorwf	___ftge@ff2+2,f
  4532  05D4  0841               	movf	___ftge@ff2+2,w
  4533  05D5  023E               	subwf	___ftge@ff1+2,w
  4534  05D6  1D03               	skipz
  4535  05D7  0008               	return
  4536  05D8  0840               	movf	___ftge@ff2+1,w
  4537  05D9  023D               	subwf	___ftge@ff1+1,w
  4538  05DA  1D03               	skipz
  4539  05DB  0008               	return
  4540  05DC  083F               	movf	___ftge@ff2,w
  4541  05DD  023C               	subwf	___ftge@ff1,w
  4542  05DE  0008               	return
  4543  05DF                     __end_of___ftge:	
  4544                           
  4545                           	psect	text21
  4546  039B                     __ptext21:	
  4547 ;; *************** function _ReadPHVVoltage *****************
  4548 ;; Defined at:
  4549 ;;		line 559 in file "main_0.c"
  4550 ;; Parameters:    Size  Location     Type
  4551 ;;		None
  4552 ;; Auto vars:     Size  Location     Type
  4553 ;;  k               1   24[BANK0 ] unsigned char 
  4554 ;;  sum             3   25[BANK0 ] float 
  4555 ;; Return value:  Size  Location     Type
  4556 ;;                  3   21[BANK0 ] float 
  4557 ;; Registers used:
  4558 ;;		wreg, status,2, status,0, pclath, cstack
  4559 ;; Tracked objects:
  4560 ;;		On entry : 1F/0
  4561 ;;		On exit  : 1F/0
  4562 ;;		Unchanged: 0/0
  4563 ;; Data sizes:     COMMON   BANK0   BANK1
  4564 ;;      Params:         0       3       0
  4565 ;;      Locals:         0       4       0
  4566 ;;      Temps:          0       0       0
  4567 ;;      Totals:         0       7       0
  4568 ;;Total ram usage:        7 bytes
  4569 ;; Hardware stack levels used:    1
  4570 ;; Hardware stack levels required when called:    5
  4571 ;; This function calls:
  4572 ;;		_ADC_GetConversion
  4573 ;;		___ftadd
  4574 ;;		___ftdiv
  4575 ;;		___ftmul
  4576 ;;		___lwtoft
  4577 ;; This function is called by:
  4578 ;;		_LEDsManage
  4579 ;;		_WakeUpZigbee
  4580 ;; This function uses a non-reentrant model
  4581 ;;
  4582                           
  4583                           
  4584                           ;psect for function _ReadPHVVoltage
  4585  039B                     _ReadPHVVoltage:	
  4586                           
  4587                           ;main_0.c: 562: float sum;
  4588                           ;main_0.c: 563: sum=0;
  4589                           
  4590                           ;incstack = 0
  4591                           ; Regs used in _ReadPHVVoltage: [wreg+status,2+status,0+pclath+cstack]
  4592  039B  01B9               	clrf	ReadPHVVoltage@sum
  4593  039C  01BA               	clrf	ReadPHVVoltage@sum+1
  4594  039D  01BB               	clrf	ReadPHVVoltage@sum+2
  4595                           
  4596                           ;main_0.c: 564: for (unsigned char k=0; k<10; k++)
  4597  039E  01B8               	clrf	ReadPHVVoltage@k
  4598  039F                     l1987:	
  4599                           
  4600                           ;main_0.c: 565: {
  4601                           ;main_0.c: 566: sum=sum+ADC_GetConversion(ainVSolar);
  4602  039F  3008               	movlw	8
  4603  03A0  2656               	fcall	_ADC_GetConversion
  4604  03A1  0871               	movf	?_ADC_GetConversion+1,w
  4605  03A2  00F9               	movwf	___lwtoft@c+1
  4606  03A3  0870               	movf	?_ADC_GetConversion,w
  4607  03A4  00F8               	movwf	___lwtoft@c
  4608  03A5  26B9               	fcall	___lwtoft
  4609  03A6  0878               	movf	?___lwtoft,w
  4610  03A7  0020               	movlb	0	; select bank0
  4611  03A8  00A9               	movwf	___ftadd@f1
  4612  03A9  0879               	movf	?___lwtoft+1,w
  4613  03AA  00AA               	movwf	___ftadd@f1+1
  4614  03AB  087A               	movf	?___lwtoft+2,w
  4615  03AC  00AB               	movwf	___ftadd@f1+2
  4616  03AD  0839               	movf	ReadPHVVoltage@sum,w
  4617  03AE  00AC               	movwf	___ftadd@f2
  4618  03AF  083A               	movf	ReadPHVVoltage@sum+1,w
  4619  03B0  00AD               	movwf	___ftadd@f2+1
  4620  03B1  083B               	movf	ReadPHVVoltage@sum+2,w
  4621  03B2  00AE               	movwf	___ftadd@f2+2
  4622  03B3  2274               	fcall	___ftadd
  4623  03B4  0829               	movf	?___ftadd,w
  4624  03B5  00B9               	movwf	ReadPHVVoltage@sum
  4625  03B6  082A               	movf	?___ftadd+1,w
  4626  03B7  00BA               	movwf	ReadPHVVoltage@sum+1
  4627  03B8  082B               	movf	?___ftadd+2,w
  4628  03B9  00BB               	movwf	ReadPHVVoltage@sum+2
  4629  03BA  300A               	movlw	10
  4630  03BB  0AB8               	incf	ReadPHVVoltage@k,f
  4631  03BC  0238               	subwf	ReadPHVVoltage@k,w
  4632  03BD  1C03               	skipc
  4633  03BE  2B9F               	goto	l1987
  4634                           
  4635                           ;main_0.c: 567: }
  4636                           ;main_0.c: 568: sum=sum/10;
  4637  03BF  3020               	movlw	32
  4638  03C0  01F8               	clrf	___ftdiv@f2
  4639  03C1  00F9               	movwf	___ftdiv@f2+1
  4640  03C2  3041               	movlw	65
  4641  03C3  00FA               	movwf	___ftdiv@f2+2
  4642  03C4  0839               	movf	ReadPHVVoltage@sum,w
  4643  03C5  00FB               	movwf	___ftdiv@f1
  4644  03C6  083A               	movf	ReadPHVVoltage@sum+1,w
  4645  03C7  00FC               	movwf	___ftdiv@f1+1
  4646  03C8  083B               	movf	ReadPHVVoltage@sum+2,w
  4647  03C9  00FD               	movwf	___ftdiv@f1+2
  4648  03CA  24E2               	fcall	___ftdiv
  4649  03CB  0878               	movf	?___ftdiv,w
  4650  03CC  0020               	movlb	0	; select bank0
  4651  03CD  00B9               	movwf	ReadPHVVoltage@sum
  4652  03CE  0879               	movf	?___ftdiv+1,w
  4653  03CF  00BA               	movwf	ReadPHVVoltage@sum+1
  4654  03D0  087A               	movf	?___ftdiv+2,w
  4655  03D1  00BB               	movwf	ReadPHVVoltage@sum+2
  4656                           
  4657                           ;main_0.c: 570: sum=sum*2;
  4658  03D2  3040               	movlw	64
  4659  03D3  01F8               	clrf	___ftmul@f1
  4660  03D4  01F9               	clrf	___ftmul@f1+1
  4661  03D5  00FA               	movwf	___ftmul@f1+2
  4662  03D6  0839               	movf	ReadPHVVoltage@sum,w
  4663  03D7  00FB               	movwf	___ftmul@f2
  4664  03D8  083A               	movf	ReadPHVVoltage@sum+1,w
  4665  03D9  00FC               	movwf	___ftmul@f2+1
  4666  03DA  083B               	movf	ReadPHVVoltage@sum+2,w
  4667  03DB  00FD               	movwf	___ftmul@f2+2
  4668  03DC  2478               	fcall	___ftmul
  4669  03DD  0878               	movf	?___ftmul,w
  4670  03DE  0020               	movlb	0	; select bank0
  4671  03DF  00B9               	movwf	ReadPHVVoltage@sum
  4672  03E0  0879               	movf	?___ftmul+1,w
  4673  03E1  00BA               	movwf	ReadPHVVoltage@sum+1
  4674  03E2  087A               	movf	?___ftmul+2,w
  4675  03E3  00BB               	movwf	ReadPHVVoltage@sum+2
  4676                           
  4677                           ;main_0.c: 571: sum=(sum*9.14814815)+6.8;
  4678  03E4  309A               	movlw	154
  4679  03E5  00A9               	movwf	___ftadd@f1
  4680  03E6  30D9               	movlw	217
  4681  03E7  00AA               	movwf	___ftadd@f1+1
  4682  03E8  3040               	movlw	64
  4683  03E9  00AB               	movwf	___ftadd@f1+2
  4684  03EA  305F               	movlw	95
  4685  03EB  00F8               	movwf	___ftmul@f1
  4686  03EC  3012               	movlw	18
  4687  03ED  00F9               	movwf	___ftmul@f1+1
  4688  03EE  3041               	movlw	65
  4689  03EF  00FA               	movwf	___ftmul@f1+2
  4690  03F0  0839               	movf	ReadPHVVoltage@sum,w
  4691  03F1  00FB               	movwf	___ftmul@f2
  4692  03F2  083A               	movf	ReadPHVVoltage@sum+1,w
  4693  03F3  00FC               	movwf	___ftmul@f2+1
  4694  03F4  083B               	movf	ReadPHVVoltage@sum+2,w
  4695  03F5  00FD               	movwf	___ftmul@f2+2
  4696  03F6  2478               	fcall	___ftmul
  4697  03F7  0878               	movf	?___ftmul,w
  4698  03F8  0020               	movlb	0	; select bank0
  4699  03F9  00AC               	movwf	___ftadd@f2
  4700  03FA  0879               	movf	?___ftmul+1,w
  4701  03FB  00AD               	movwf	___ftadd@f2+1
  4702  03FC  087A               	movf	?___ftmul+2,w
  4703  03FD  00AE               	movwf	___ftadd@f2+2
  4704  03FE  2274               	fcall	___ftadd
  4705  03FF  0829               	movf	?___ftadd,w
  4706  0400  00B9               	movwf	ReadPHVVoltage@sum
  4707  0401  082A               	movf	?___ftadd+1,w
  4708  0402  00BA               	movwf	ReadPHVVoltage@sum+1
  4709  0403  082B               	movf	?___ftadd+2,w
  4710  0404  00BB               	movwf	ReadPHVVoltage@sum+2
  4711                           
  4712                           ;main_0.c: 572: return sum;
  4713  0405  0839               	movf	ReadPHVVoltage@sum,w
  4714  0406  00B5               	movwf	?_ReadPHVVoltage
  4715  0407  083A               	movf	ReadPHVVoltage@sum+1,w
  4716  0408  00B6               	movwf	?_ReadPHVVoltage+1
  4717  0409  083B               	movf	ReadPHVVoltage@sum+2,w
  4718  040A  00B7               	movwf	?_ReadPHVVoltage+2
  4719  040B  0008               	return
  4720  040C                     __end_of_ReadPHVVoltage:	
  4721                           
  4722                           	psect	text22
  4723  06B9                     __ptext22:	
  4724 ;; *************** function ___lwtoft *****************
  4725 ;; Defined at:
  4726 ;;		line 28 in file "C:\Program Files (x86)\Microchip\xc8\v1.34\sources\common\lwtoft.c"
  4727 ;; Parameters:    Size  Location     Type
  4728 ;;  c               2    8[COMMON] unsigned int 
  4729 ;; Auto vars:     Size  Location     Type
  4730 ;;		None
  4731 ;; Return value:  Size  Location     Type
  4732 ;;                  3    8[COMMON] float 
  4733 ;; Registers used:
  4734 ;;		wreg, status,2, status,0, pclath, cstack
  4735 ;; Tracked objects:
  4736 ;;		On entry : 1F/1
  4737 ;;		On exit  : 1E/0
  4738 ;;		Unchanged: 1E/0
  4739 ;; Data sizes:     COMMON   BANK0   BANK1
  4740 ;;      Params:         3       0       0
  4741 ;;      Locals:         0       0       0
  4742 ;;      Temps:          0       0       0
  4743 ;;      Totals:         3       0       0
  4744 ;;Total ram usage:        3 bytes
  4745 ;; Hardware stack levels used:    1
  4746 ;; Hardware stack levels required when called:    4
  4747 ;; This function calls:
  4748 ;;		___ftpack
  4749 ;; This function is called by:
  4750 ;;		_ReadainVBatt
  4751 ;;		_ReadPHVVoltage
  4752 ;; This function uses a non-reentrant model
  4753 ;;
  4754                           
  4755                           
  4756                           ;psect for function ___lwtoft
  4757  06B9                     ___lwtoft:	
  4758                           
  4759                           ;incstack = 0
  4760                           ; Regs used in ___lwtoft: [wreg+status,2+status,0+pclath+cstack]
  4761  06B9  0878               	movf	___lwtoft@c,w
  4762  06BA  00F0               	movwf	___ftpack@arg
  4763  06BB  0879               	movf	___lwtoft@c+1,w
  4764  06BC  00F1               	movwf	___ftpack@arg+1
  4765  06BD  308E               	movlw	142
  4766  06BE  01F2               	clrf	___ftpack@arg+2
  4767  06BF  00F3               	movwf	___ftpack@exp
  4768  06C0  01F4               	clrf	___ftpack@sign
  4769  06C1  2544               	fcall	___ftpack
  4770  06C2  0870               	movf	?___ftpack,w
  4771  06C3  00F8               	movwf	?___lwtoft
  4772  06C4  0871               	movf	?___ftpack+1,w
  4773  06C5  00F9               	movwf	?___lwtoft+1
  4774  06C6  0872               	movf	?___ftpack+2,w
  4775  06C7  00FA               	movwf	?___lwtoft+2
  4776  06C8  0008               	return
  4777  06C9                     __end_of___lwtoft:	
  4778                           
  4779                           	psect	text23
  4780  0478                     __ptext23:	
  4781 ;; *************** function ___ftmul *****************
  4782 ;; Defined at:
  4783 ;;		line 62 in file "C:\Program Files (x86)\Microchip\xc8\v1.34\sources\common\ftmul.c"
  4784 ;; Parameters:    Size  Location     Type
  4785 ;;  f1              3    8[COMMON] float 
  4786 ;;  f2              3   11[COMMON] float 
  4787 ;; Auto vars:     Size  Location     Type
  4788 ;;  f3_as_produc    3    4[BANK0 ] unsigned um
  4789 ;;  sign            1    8[BANK0 ] unsigned char 
  4790 ;;  cntr            1    7[BANK0 ] unsigned char 
  4791 ;;  exp             1    3[BANK0 ] unsigned char 
  4792 ;; Return value:  Size  Location     Type
  4793 ;;                  3    8[COMMON] float 
  4794 ;; Registers used:
  4795 ;;		wreg, status,2, status,0, pclath, cstack
  4796 ;; Tracked objects:
  4797 ;;		On entry : 1F/0
  4798 ;;		On exit  : 1E/0
  4799 ;;		Unchanged: 0/0
  4800 ;; Data sizes:     COMMON   BANK0   BANK1
  4801 ;;      Params:         6       0       0
  4802 ;;      Locals:         0       6       0
  4803 ;;      Temps:          0       3       0
  4804 ;;      Totals:         6       9       0
  4805 ;;Total ram usage:       15 bytes
  4806 ;; Hardware stack levels used:    1
  4807 ;; Hardware stack levels required when called:    4
  4808 ;; This function calls:
  4809 ;;		___ftpack
  4810 ;; This function is called by:
  4811 ;;		_ReadainVBatt
  4812 ;;		_ReadPHVVoltage
  4813 ;; This function uses a non-reentrant model
  4814 ;;
  4815                           
  4816                           
  4817                           ;psect for function ___ftmul
  4818  0478                     ___ftmul:	
  4819                           
  4820                           ;incstack = 0
  4821                           ; Regs used in ___ftmul: [wreg+status,2+status,0+pclath+cstack]
  4822  0478  0878               	movf	___ftmul@f1,w
  4823  0479  00A0               	movwf	??___ftmul
  4824  047A  0879               	movf	___ftmul@f1+1,w
  4825  047B  00A1               	movwf	??___ftmul+1
  4826  047C  087A               	movf	___ftmul@f1+2,w
  4827  047D  00A2               	movwf	??___ftmul+2
  4828  047E  1003               	clrc
  4829  047F  0D21               	rlf	??___ftmul+1,w
  4830  0480  0D22               	rlf	??___ftmul+2,w
  4831  0481  00A3               	movwf	___ftmul@exp
  4832  0482  0823               	movf	___ftmul@exp,w
  4833  0483  1D03               	btfss	3,2
  4834  0484  2C89               	goto	l1823
  4835  0485  01F8               	clrf	?___ftmul
  4836  0486  01F9               	clrf	?___ftmul+1
  4837  0487  01FA               	clrf	?___ftmul+2
  4838  0488  0008               	return
  4839  0489                     l1823:	
  4840  0489  087B               	movf	___ftmul@f2,w
  4841  048A  00A0               	movwf	??___ftmul
  4842  048B  087C               	movf	___ftmul@f2+1,w
  4843  048C  00A1               	movwf	??___ftmul+1
  4844  048D  087D               	movf	___ftmul@f2+2,w
  4845  048E  00A2               	movwf	??___ftmul+2
  4846  048F  1003               	clrc
  4847  0490  0D21               	rlf	??___ftmul+1,w
  4848  0491  0D22               	rlf	??___ftmul+2,w
  4849  0492  00A8               	movwf	___ftmul@sign
  4850  0493  0828               	movf	___ftmul@sign,w
  4851  0494  1D03               	btfss	3,2
  4852  0495  2C9A               	goto	l1827
  4853  0496  01F8               	clrf	?___ftmul
  4854  0497  01F9               	clrf	?___ftmul+1
  4855  0498  01FA               	clrf	?___ftmul+2
  4856  0499  0008               	return
  4857  049A                     l1827:	
  4858  049A  0828               	movf	___ftmul@sign,w
  4859  049B  3E7B               	addlw	123
  4860  049C  07A3               	addwf	___ftmul@exp,f
  4861  049D  087A               	movf	___ftmul@f1+2,w
  4862  049E  00A8               	movwf	___ftmul@sign
  4863  049F  087D               	movf	___ftmul@f2+2,w
  4864  04A0  06A8               	xorwf	___ftmul@sign,f
  4865  04A1  3080               	movlw	128
  4866  04A2  05A8               	andwf	___ftmul@sign,f
  4867  04A3  30FF               	movlw	255
  4868  04A4  17F9               	bsf	___ftmul@f1+1,7
  4869  04A5  17FC               	bsf	___ftmul@f2+1,7
  4870  04A6  05FB               	andwf	___ftmul@f2,f
  4871  04A7  05FC               	andwf	___ftmul@f2+1,f
  4872  04A8  3007               	movlw	7
  4873  04A9  01FD               	clrf	___ftmul@f2+2
  4874  04AA  01A4               	clrf	___ftmul@f3_as_product
  4875  04AB  01A5               	clrf	___ftmul@f3_as_product+1
  4876  04AC  01A6               	clrf	___ftmul@f3_as_product+2
  4877  04AD  00A7               	movwf	___ftmul@cntr
  4878  04AE                     l1845:	
  4879  04AE  1C78               	btfss	___ftmul@f1,0
  4880  04AF  2CB6               	goto	l1849
  4881  04B0  087B               	movf	___ftmul@f2,w
  4882  04B1  07A4               	addwf	___ftmul@f3_as_product,f
  4883  04B2  087C               	movf	___ftmul@f2+1,w
  4884  04B3  3DA5               	addwfc	___ftmul@f3_as_product+1,f
  4885  04B4  087D               	movf	___ftmul@f2+2,w
  4886  04B5  3DA6               	addwfc	___ftmul@f3_as_product+2,f
  4887  04B6                     l1849:	
  4888  04B6  36FA               	lsrf	___ftmul@f1+2,f
  4889  04B7  0CF9               	rrf	___ftmul@f1+1,f
  4890  04B8  0CF8               	rrf	___ftmul@f1,f
  4891  04B9  35FB               	lslf	___ftmul@f2,f
  4892  04BA  0DFC               	rlf	___ftmul@f2+1,f
  4893  04BB  0DFD               	rlf	___ftmul@f2+2,f
  4894  04BC  0BA7               	decfsz	___ftmul@cntr,f
  4895  04BD  2CAE               	goto	l1845
  4896  04BE  3009               	movlw	9
  4897  04BF  00A7               	movwf	___ftmul@cntr
  4898  04C0                     l1857:	
  4899  04C0  1C78               	btfss	___ftmul@f1,0
  4900  04C1  2CC8               	goto	l1861
  4901  04C2  087B               	movf	___ftmul@f2,w
  4902  04C3  07A4               	addwf	___ftmul@f3_as_product,f
  4903  04C4  087C               	movf	___ftmul@f2+1,w
  4904  04C5  3DA5               	addwfc	___ftmul@f3_as_product+1,f
  4905  04C6  087D               	movf	___ftmul@f2+2,w
  4906  04C7  3DA6               	addwfc	___ftmul@f3_as_product+2,f
  4907  04C8                     l1861:	
  4908  04C8  36FA               	lsrf	___ftmul@f1+2,f
  4909  04C9  0CF9               	rrf	___ftmul@f1+1,f
  4910  04CA  0CF8               	rrf	___ftmul@f1,f
  4911  04CB  36A6               	lsrf	___ftmul@f3_as_product+2,f
  4912  04CC  0CA5               	rrf	___ftmul@f3_as_product+1,f
  4913  04CD  0CA4               	rrf	___ftmul@f3_as_product,f
  4914  04CE  0BA7               	decfsz	___ftmul@cntr,f
  4915  04CF  2CC0               	goto	l1857
  4916  04D0  0824               	movf	___ftmul@f3_as_product,w
  4917  04D1  00F0               	movwf	___ftpack@arg
  4918  04D2  0825               	movf	___ftmul@f3_as_product+1,w
  4919  04D3  00F1               	movwf	___ftpack@arg+1
  4920  04D4  0826               	movf	___ftmul@f3_as_product+2,w
  4921  04D5  00F2               	movwf	___ftpack@arg+2
  4922  04D6  0823               	movf	___ftmul@exp,w
  4923  04D7  00F3               	movwf	___ftpack@exp
  4924  04D8  0828               	movf	___ftmul@sign,w
  4925  04D9  00F4               	movwf	___ftpack@sign
  4926  04DA  2544               	fcall	___ftpack
  4927  04DB  0870               	movf	?___ftpack,w
  4928  04DC  00F8               	movwf	?___ftmul
  4929  04DD  0871               	movf	?___ftpack+1,w
  4930  04DE  00F9               	movwf	?___ftmul+1
  4931  04DF  0872               	movf	?___ftpack+2,w
  4932  04E0  00FA               	movwf	?___ftmul+2
  4933  04E1  0008               	return
  4934  04E2                     __end_of___ftmul:	
  4935                           
  4936                           	psect	text24
  4937  04E2                     __ptext24:	
  4938 ;; *************** function ___ftdiv *****************
  4939 ;; Defined at:
  4940 ;;		line 56 in file "C:\Program Files (x86)\Microchip\xc8\v1.34\sources\common\ftdiv.c"
  4941 ;; Parameters:    Size  Location     Type
  4942 ;;  f2              3    8[COMMON] float 
  4943 ;;  f1              3   11[COMMON] float 
  4944 ;; Auto vars:     Size  Location     Type
  4945 ;;  f3              3    4[BANK0 ] float 
  4946 ;;  sign            1    8[BANK0 ] unsigned char 
  4947 ;;  exp             1    7[BANK0 ] unsigned char 
  4948 ;;  cntr            1    3[BANK0 ] unsigned char 
  4949 ;; Return value:  Size  Location     Type
  4950 ;;                  3    8[COMMON] float 
  4951 ;; Registers used:
  4952 ;;		wreg, status,2, status,0, pclath, cstack
  4953 ;; Tracked objects:
  4954 ;;		On entry : 1F/0
  4955 ;;		On exit  : 1E/0
  4956 ;;		Unchanged: 0/0
  4957 ;; Data sizes:     COMMON   BANK0   BANK1
  4958 ;;      Params:         6       0       0
  4959 ;;      Locals:         0       6       0
  4960 ;;      Temps:          0       3       0
  4961 ;;      Totals:         6       9       0
  4962 ;;Total ram usage:       15 bytes
  4963 ;; Hardware stack levels used:    1
  4964 ;; Hardware stack levels required when called:    4
  4965 ;; This function calls:
  4966 ;;		___ftpack
  4967 ;; This function is called by:
  4968 ;;		_ReadainVBatt
  4969 ;;		_ReadPHVVoltage
  4970 ;; This function uses a non-reentrant model
  4971 ;;
  4972                           
  4973                           
  4974                           ;psect for function ___ftdiv
  4975  04E2                     ___ftdiv:	
  4976                           
  4977                           ;incstack = 0
  4978                           ; Regs used in ___ftdiv: [wreg+status,2+status,0+pclath+cstack]
  4979  04E2  087B               	movf	___ftdiv@f1,w
  4980  04E3  00A0               	movwf	??___ftdiv
  4981  04E4  087C               	movf	___ftdiv@f1+1,w
  4982  04E5  00A1               	movwf	??___ftdiv+1
  4983  04E6  087D               	movf	___ftdiv@f1+2,w
  4984  04E7  00A2               	movwf	??___ftdiv+2
  4985  04E8  1003               	clrc
  4986  04E9  0D21               	rlf	??___ftdiv+1,w
  4987  04EA  0D22               	rlf	??___ftdiv+2,w
  4988  04EB  00A7               	movwf	___ftdiv@exp
  4989  04EC  0827               	movf	___ftdiv@exp,w
  4990  04ED  1D03               	btfss	3,2
  4991  04EE  2CF3               	goto	l1783
  4992  04EF  01F8               	clrf	?___ftdiv
  4993  04F0  01F9               	clrf	?___ftdiv+1
  4994  04F1  01FA               	clrf	?___ftdiv+2
  4995  04F2  0008               	return
  4996  04F3                     l1783:	
  4997  04F3  0878               	movf	___ftdiv@f2,w
  4998  04F4  00A0               	movwf	??___ftdiv
  4999  04F5  0879               	movf	___ftdiv@f2+1,w
  5000  04F6  00A1               	movwf	??___ftdiv+1
  5001  04F7  087A               	movf	___ftdiv@f2+2,w
  5002  04F8  00A2               	movwf	??___ftdiv+2
  5003  04F9  1003               	clrc
  5004  04FA  0D21               	rlf	??___ftdiv+1,w
  5005  04FB  0D22               	rlf	??___ftdiv+2,w
  5006  04FC  00A8               	movwf	___ftdiv@sign
  5007  04FD  0828               	movf	___ftdiv@sign,w
  5008  04FE  1D03               	btfss	3,2
  5009  04FF  2D04               	goto	l769
  5010  0500  01F8               	clrf	?___ftdiv
  5011  0501  01F9               	clrf	?___ftdiv+1
  5012  0502  01FA               	clrf	?___ftdiv+2
  5013  0503  0008               	return
  5014  0504                     l769:	
  5015  0504  3089               	movlw	137
  5016  0505  01A4               	clrf	___ftdiv@f3
  5017  0506  01A5               	clrf	___ftdiv@f3+1
  5018  0507  01A6               	clrf	___ftdiv@f3+2
  5019  0508  0728               	addwf	___ftdiv@sign,w
  5020  0509  00A0               	movwf	??___ftdiv
  5021  050A  02A7               	subwf	___ftdiv@exp,f
  5022  050B  087D               	movf	___ftdiv@f1+2,w
  5023  050C  00A8               	movwf	___ftdiv@sign
  5024  050D  087A               	movf	___ftdiv@f2+2,w
  5025  050E  06A8               	xorwf	___ftdiv@sign,f
  5026  050F  3080               	movlw	128
  5027  0510  05A8               	andwf	___ftdiv@sign,f
  5028  0511  3018               	movlw	24
  5029  0512  17FC               	bsf	___ftdiv@f1+1,7
  5030  0513  01FD               	clrf	___ftdiv@f1+2
  5031  0514  17F9               	bsf	___ftdiv@f2+1,7
  5032  0515  01FA               	clrf	___ftdiv@f2+2
  5033  0516  00A3               	movwf	___ftdiv@cntr
  5034  0517                     l1805:	
  5035  0517  35A4               	lslf	___ftdiv@f3,f
  5036  0518  0DA5               	rlf	___ftdiv@f3+1,f
  5037  0519  0DA6               	rlf	___ftdiv@f3+2,f
  5038  051A  087A               	movf	___ftdiv@f2+2,w
  5039  051B  027D               	subwf	___ftdiv@f1+2,w
  5040  051C  1D03               	skipz
  5041  051D  2D24               	goto	u1315
  5042  051E  0879               	movf	___ftdiv@f2+1,w
  5043  051F  027C               	subwf	___ftdiv@f1+1,w
  5044  0520  1D03               	skipz
  5045  0521  2D24               	goto	u1315
  5046  0522  0878               	movf	___ftdiv@f2,w
  5047  0523  027B               	subwf	___ftdiv@f1,w
  5048  0524                     u1315:	
  5049  0524  1C03               	skipc
  5050  0525  2D2D               	goto	l1811
  5051  0526  0878               	movf	___ftdiv@f2,w
  5052  0527  02FB               	subwf	___ftdiv@f1,f
  5053  0528  0879               	movf	___ftdiv@f2+1,w
  5054  0529  3BFC               	subwfb	___ftdiv@f1+1,f
  5055  052A  087A               	movf	___ftdiv@f2+2,w
  5056  052B  3BFD               	subwfb	___ftdiv@f1+2,f
  5057  052C  1424               	bsf	___ftdiv@f3,0
  5058  052D                     l1811:	
  5059  052D  35FB               	lslf	___ftdiv@f1,f
  5060  052E  0DFC               	rlf	___ftdiv@f1+1,f
  5061  052F  0DFD               	rlf	___ftdiv@f1+2,f
  5062  0530  0BA3               	decfsz	___ftdiv@cntr,f
  5063  0531  2D17               	goto	l1805
  5064  0532  0824               	movf	___ftdiv@f3,w
  5065  0533  00F0               	movwf	___ftpack@arg
  5066  0534  0825               	movf	___ftdiv@f3+1,w
  5067  0535  00F1               	movwf	___ftpack@arg+1
  5068  0536  0826               	movf	___ftdiv@f3+2,w
  5069  0537  00F2               	movwf	___ftpack@arg+2
  5070  0538  0827               	movf	___ftdiv@exp,w
  5071  0539  00F3               	movwf	___ftpack@exp
  5072  053A  0828               	movf	___ftdiv@sign,w
  5073  053B  00F4               	movwf	___ftpack@sign
  5074  053C  2544               	fcall	___ftpack
  5075  053D  0870               	movf	?___ftpack,w
  5076  053E  00F8               	movwf	?___ftdiv
  5077  053F  0871               	movf	?___ftpack+1,w
  5078  0540  00F9               	movwf	?___ftdiv+1
  5079  0541  0872               	movf	?___ftpack+2,w
  5080  0542  00FA               	movwf	?___ftdiv+2
  5081  0543  0008               	return
  5082  0544                     __end_of___ftdiv:	
  5083                           
  5084                           	psect	text25
  5085  0274                     __ptext25:	
  5086 ;; *************** function ___ftadd *****************
  5087 ;; Defined at:
  5088 ;;		line 86 in file "C:\Program Files (x86)\Microchip\xc8\v1.34\sources\common\ftadd.c"
  5089 ;; Parameters:    Size  Location     Type
  5090 ;;  f1              3    9[BANK0 ] float 
  5091 ;;  f2              3   12[BANK0 ] float 
  5092 ;; Auto vars:     Size  Location     Type
  5093 ;;  exp1            1   20[BANK0 ] unsigned char 
  5094 ;;  exp2            1   19[BANK0 ] unsigned char 
  5095 ;;  sign            1   18[BANK0 ] unsigned char 
  5096 ;; Return value:  Size  Location     Type
  5097 ;;                  3    9[BANK0 ] float 
  5098 ;; Registers used:
  5099 ;;		wreg, status,2, status,0, pclath, cstack
  5100 ;; Tracked objects:
  5101 ;;		On entry : 1F/0
  5102 ;;		On exit  : 1F/0
  5103 ;;		Unchanged: 0/0
  5104 ;; Data sizes:     COMMON   BANK0   BANK1
  5105 ;;      Params:         0       6       0
  5106 ;;      Locals:         0       3       0
  5107 ;;      Temps:          0       3       0
  5108 ;;      Totals:         0      12       0
  5109 ;;Total ram usage:       12 bytes
  5110 ;; Hardware stack levels used:    1
  5111 ;; Hardware stack levels required when called:    4
  5112 ;; This function calls:
  5113 ;;		___ftpack
  5114 ;; This function is called by:
  5115 ;;		_ReadainVBatt
  5116 ;;		_ReadPHVVoltage
  5117 ;; This function uses a non-reentrant model
  5118 ;;
  5119                           
  5120                           
  5121                           ;psect for function ___ftadd
  5122  0274                     ___ftadd:	
  5123                           
  5124                           ;incstack = 0
  5125                           ; Regs used in ___ftadd: [wreg+status,2+status,0+pclath+cstack]
  5126  0274  0829               	movf	___ftadd@f1,w
  5127  0275  00AF               	movwf	??___ftadd
  5128  0276  082A               	movf	___ftadd@f1+1,w
  5129  0277  00B0               	movwf	??___ftadd+1
  5130  0278  082B               	movf	___ftadd@f1+2,w
  5131  0279  00B1               	movwf	??___ftadd+2
  5132  027A  1003               	clrc
  5133  027B  0D30               	rlf	??___ftadd+1,w
  5134  027C  0D31               	rlf	??___ftadd+2,w
  5135  027D  00B4               	movwf	___ftadd@exp1
  5136  027E  082C               	movf	___ftadd@f2,w
  5137  027F  00AF               	movwf	??___ftadd
  5138  0280  082D               	movf	___ftadd@f2+1,w
  5139  0281  00B0               	movwf	??___ftadd+1
  5140  0282  082E               	movf	___ftadd@f2+2,w
  5141  0283  00B1               	movwf	??___ftadd+2
  5142  0284  1003               	clrc
  5143  0285  0D30               	rlf	??___ftadd+1,w
  5144  0286  0D31               	rlf	??___ftadd+2,w
  5145  0287  00B3               	movwf	___ftadd@exp2
  5146  0288  0834               	movf	___ftadd@exp1,w
  5147  0289  1903               	btfsc	3,2
  5148  028A  2A97               	goto	l1709
  5149  028B  0833               	movf	___ftadd@exp2,w
  5150  028C  0234               	subwf	___ftadd@exp1,w
  5151  028D  0833               	movf	___ftadd@exp2,w
  5152  028E  1803               	skipnc
  5153  028F  2A9F               	goto	L3
  5154  0290  00AF               	movwf	??___ftadd
  5155  0291  0834               	movf	___ftadd@exp1,w
  5156  0292  02AF               	subwf	??___ftadd,f
  5157  0293  3019               	movlw	25
  5158  0294  022F               	subwf	??___ftadd,w
  5159  0295  1C03               	skipc
  5160  0296  2A9E               	goto	l1713
  5161  0297                     l1709:	
  5162  0297  082C               	movf	___ftadd@f2,w
  5163  0298  00A9               	movwf	?___ftadd
  5164  0299  082D               	movf	___ftadd@f2+1,w
  5165  029A  00AA               	movwf	?___ftadd+1
  5166  029B  082E               	movf	___ftadd@f2+2,w
  5167  029C  00AB               	movwf	?___ftadd+2
  5168  029D  0008               	return
  5169  029E                     l1713:	
  5170  029E  0833               	movf	___ftadd@exp2,w
  5171  029F                     L3:	
  5172  029F  1903               	btfsc	3,2
  5173  02A0  0008               	return
  5174  02A1  0834               	movf	___ftadd@exp1,w
  5175  02A2  0233               	subwf	___ftadd@exp2,w
  5176  02A3  1803               	skipnc
  5177  02A4  2AAD               	goto	l1719
  5178  02A5  0834               	movf	___ftadd@exp1,w
  5179  02A6  00AF               	movwf	??___ftadd
  5180  02A7  0833               	movf	___ftadd@exp2,w
  5181  02A8  02AF               	subwf	??___ftadd,f
  5182  02A9  3019               	movlw	25
  5183  02AA  022F               	subwf	??___ftadd,w
  5184  02AB  1803               	btfsc	3,0
  5185  02AC  0008               	return
  5186  02AD                     l1719:	
  5187  02AD  3006               	movlw	6
  5188  02AE  00B2               	movwf	___ftadd@sign
  5189  02AF  1BAB               	btfsc	___ftadd@f1+2,7
  5190  02B0  17B2               	bsf	___ftadd@sign,7
  5191  02B1  1BAE               	btfsc	___ftadd@f2+2,7
  5192  02B2  1732               	bsf	___ftadd@sign,6
  5193  02B3  17AA               	bsf	___ftadd@f1+1,7
  5194  02B4  01AB               	clrf	___ftadd@f1+2
  5195  02B5  17AD               	bsf	___ftadd@f2+1,7
  5196  02B6  01AE               	clrf	___ftadd@f2+2
  5197  02B7  0833               	movf	___ftadd@exp2,w
  5198  02B8  0234               	subwf	___ftadd@exp1,w
  5199  02B9  1803               	skipnc
  5200  02BA  2AD2               	goto	l1741
  5201  02BB                     l1731:	
  5202  02BB  35AC               	lslf	___ftadd@f2,f
  5203  02BC  0DAD               	rlf	___ftadd@f2+1,f
  5204  02BD  0DAE               	rlf	___ftadd@f2+2,f
  5205  02BE  03B3               	decf	___ftadd@exp2,f
  5206  02BF  0833               	movf	___ftadd@exp2,w
  5207  02C0  0634               	xorwf	___ftadd@exp1,w
  5208  02C1  1903               	skipnz
  5209  02C2  2ACD               	goto	l1739
  5210  02C3  03B2               	decf	___ftadd@sign,f
  5211  02C4  0832               	movf	___ftadd@sign,w
  5212  02C5  3907               	andlw	7
  5213  02C6  1903               	btfsc	3,2
  5214  02C7  2ACD               	goto	l1739
  5215  02C8  2ABB               	goto	l1731
  5216  02C9                     l1737:	
  5217  02C9  36AB               	lsrf	___ftadd@f1+2,f
  5218  02CA  0CAA               	rrf	___ftadd@f1+1,f
  5219  02CB  0CA9               	rrf	___ftadd@f1,f
  5220  02CC  0AB4               	incf	___ftadd@exp1,f
  5221  02CD                     l1739:	
  5222  02CD  0834               	movf	___ftadd@exp1,w
  5223  02CE  0633               	xorwf	___ftadd@exp2,w
  5224  02CF  1903               	btfsc	3,2
  5225  02D0  2AEC               	goto	l751
  5226  02D1  2AC9               	goto	l1737
  5227  02D2                     l1741:	
  5228  02D2  0834               	movf	___ftadd@exp1,w
  5229  02D3  0233               	subwf	___ftadd@exp2,w
  5230  02D4  1803               	skipnc
  5231  02D5  2AEC               	goto	l751
  5232  02D6                     l1743:	
  5233  02D6  35A9               	lslf	___ftadd@f1,f
  5234  02D7  0DAA               	rlf	___ftadd@f1+1,f
  5235  02D8  0DAB               	rlf	___ftadd@f1+2,f
  5236  02D9  03B4               	decf	___ftadd@exp1,f
  5237  02DA  0833               	movf	___ftadd@exp2,w
  5238  02DB  0634               	xorwf	___ftadd@exp1,w
  5239  02DC  1903               	skipnz
  5240  02DD  2AE8               	goto	l1751
  5241  02DE  03B2               	decf	___ftadd@sign,f
  5242  02DF  0832               	movf	___ftadd@sign,w
  5243  02E0  3907               	andlw	7
  5244  02E1  1903               	btfsc	3,2
  5245  02E2  2AE8               	goto	l1751
  5246  02E3  2AD6               	goto	l1743
  5247  02E4                     l1749:	
  5248  02E4  36AE               	lsrf	___ftadd@f2+2,f
  5249  02E5  0CAD               	rrf	___ftadd@f2+1,f
  5250  02E6  0CAC               	rrf	___ftadd@f2,f
  5251  02E7  0AB3               	incf	___ftadd@exp2,f
  5252  02E8                     l1751:	
  5253  02E8  0834               	movf	___ftadd@exp1,w
  5254  02E9  0633               	xorwf	___ftadd@exp2,w
  5255  02EA  1D03               	skipz
  5256  02EB  2AE4               	goto	l1749
  5257  02EC                     l751:	
  5258  02EC  1FB2               	btfss	___ftadd@sign,7
  5259  02ED  2AF7               	goto	l1757
  5260  02EE  30FF               	movlw	255
  5261  02EF  06A9               	xorwf	___ftadd@f1,f
  5262  02F0  06AA               	xorwf	___ftadd@f1+1,f
  5263  02F1  06AB               	xorwf	___ftadd@f1+2,f
  5264  02F2  0AA9               	incf	___ftadd@f1,f
  5265  02F3  1903               	skipnz
  5266  02F4  0AAA               	incf	___ftadd@f1+1,f
  5267  02F5  1903               	skipnz
  5268  02F6  0AAB               	incf	___ftadd@f1+2,f
  5269  02F7                     l1757:	
  5270  02F7  1F32               	btfss	___ftadd@sign,6
  5271  02F8  2B02               	goto	l1763
  5272  02F9  30FF               	movlw	255
  5273  02FA  06AC               	xorwf	___ftadd@f2,f
  5274  02FB  06AD               	xorwf	___ftadd@f2+1,f
  5275  02FC  06AE               	xorwf	___ftadd@f2+2,f
  5276  02FD  0AAC               	incf	___ftadd@f2,f
  5277  02FE  1903               	skipnz
  5278  02FF  0AAD               	incf	___ftadd@f2+1,f
  5279  0300  1903               	skipnz
  5280  0301  0AAE               	incf	___ftadd@f2+2,f
  5281  0302                     l1763:	
  5282  0302  01B2               	clrf	___ftadd@sign
  5283  0303  0829               	movf	___ftadd@f1,w
  5284  0304  07AC               	addwf	___ftadd@f2,f
  5285  0305  082A               	movf	___ftadd@f1+1,w
  5286  0306  3DAD               	addwfc	___ftadd@f2+1,f
  5287  0307  082B               	movf	___ftadd@f1+2,w
  5288  0308  3DAE               	addwfc	___ftadd@f2+2,f
  5289  0309  1FAE               	btfss	___ftadd@f2+2,7
  5290  030A  2B16               	goto	l1775
  5291  030B  30FF               	movlw	255
  5292  030C  06AC               	xorwf	___ftadd@f2,f
  5293  030D  06AD               	xorwf	___ftadd@f2+1,f
  5294  030E  06AE               	xorwf	___ftadd@f2+2,f
  5295  030F  0AAC               	incf	___ftadd@f2,f
  5296  0310  1903               	skipnz
  5297  0311  0AAD               	incf	___ftadd@f2+1,f
  5298  0312  1903               	skipnz
  5299  0313  0AAE               	incf	___ftadd@f2+2,f
  5300  0314  01B2               	clrf	___ftadd@sign
  5301  0315  0AB2               	incf	___ftadd@sign,f
  5302  0316                     l1775:	
  5303  0316  082C               	movf	___ftadd@f2,w
  5304  0317  00F0               	movwf	___ftpack@arg
  5305  0318  082D               	movf	___ftadd@f2+1,w
  5306  0319  00F1               	movwf	___ftpack@arg+1
  5307  031A  082E               	movf	___ftadd@f2+2,w
  5308  031B  00F2               	movwf	___ftpack@arg+2
  5309  031C  0834               	movf	___ftadd@exp1,w
  5310  031D  00F3               	movwf	___ftpack@exp
  5311  031E  0832               	movf	___ftadd@sign,w
  5312  031F  00F4               	movwf	___ftpack@sign
  5313  0320  2544               	fcall	___ftpack
  5314  0321  0870               	movf	?___ftpack,w
  5315  0322  0020               	movlb	0	; select bank0
  5316  0323  00A9               	movwf	?___ftadd
  5317  0324  0871               	movf	?___ftpack+1,w
  5318  0325  00AA               	movwf	?___ftadd+1
  5319  0326  0872               	movf	?___ftpack+2,w
  5320  0327  00AB               	movwf	?___ftadd+2
  5321  0328  0008               	return
  5322  0329                     __end_of___ftadd:	
  5323                           
  5324                           	psect	text26
  5325  0544                     __ptext26:	
  5326 ;; *************** function ___ftpack *****************
  5327 ;; Defined at:
  5328 ;;		line 62 in file "C:\Program Files (x86)\Microchip\xc8\v1.34\sources\common\float.c"
  5329 ;; Parameters:    Size  Location     Type
  5330 ;;  arg             3    0[COMMON] unsigned um
  5331 ;;  exp             1    3[COMMON] unsigned char 
  5332 ;;  sign            1    4[COMMON] unsigned char 
  5333 ;; Auto vars:     Size  Location     Type
  5334 ;;		None
  5335 ;; Return value:  Size  Location     Type
  5336 ;;                  3    0[COMMON] float 
  5337 ;; Registers used:
  5338 ;;		wreg, status,2, status,0
  5339 ;; Tracked objects:
  5340 ;;		On entry : 1E/1
  5341 ;;		On exit  : 1E/0
  5342 ;;		Unchanged: 1E/0
  5343 ;; Data sizes:     COMMON   BANK0   BANK1
  5344 ;;      Params:         5       0       0
  5345 ;;      Locals:         0       0       0
  5346 ;;      Temps:          3       0       0
  5347 ;;      Totals:         8       0       0
  5348 ;;Total ram usage:        8 bytes
  5349 ;; Hardware stack levels used:    1
  5350 ;; Hardware stack levels required when called:    3
  5351 ;; This function calls:
  5352 ;;		Nothing
  5353 ;; This function is called by:
  5354 ;;		___ftadd
  5355 ;;		___ftdiv
  5356 ;;		___ftmul
  5357 ;;		___lwtoft
  5358 ;; This function uses a non-reentrant model
  5359 ;;
  5360                           
  5361                           
  5362                           ;psect for function ___ftpack
  5363  0544                     ___ftpack:	
  5364                           
  5365                           ;incstack = 0
  5366                           ; Regs used in ___ftpack: [wreg+status,2+status,0]
  5367  0544  0873               	movf	___ftpack@exp,w
  5368  0545  1903               	btfsc	3,2
  5369  0546  2D4C               	goto	l715
  5370  0547  0872               	movf	___ftpack@arg+2,w
  5371  0548  0471               	iorwf	___ftpack@arg+1,w
  5372  0549  0470               	iorwf	___ftpack@arg,w
  5373  054A  1D03               	skipz
  5374  054B  2D54               	goto	l1669
  5375  054C                     l715:	
  5376  054C  01F0               	clrf	?___ftpack
  5377  054D  01F1               	clrf	?___ftpack+1
  5378  054E  01F2               	clrf	?___ftpack+2
  5379  054F  0008               	return
  5380  0550                     l1667:	
  5381  0550  0AF3               	incf	___ftpack@exp,f
  5382  0551  36F2               	lsrf	___ftpack@arg+2,f
  5383  0552  0CF1               	rrf	___ftpack@arg+1,f
  5384  0553  0CF0               	rrf	___ftpack@arg,f
  5385  0554                     l1669:	
  5386  0554  30FE               	movlw	254
  5387  0555  0572               	andwf	___ftpack@arg+2,w
  5388  0556  1903               	btfsc	3,2
  5389  0557  2D62               	goto	l1673
  5390  0558  2D50               	goto	l1667
  5391  0559                     l1671:	
  5392  0559  0AF3               	incf	___ftpack@exp,f
  5393  055A  0AF0               	incf	___ftpack@arg,f
  5394  055B  1903               	skipnz
  5395  055C  0AF1               	incf	___ftpack@arg+1,f
  5396  055D  1903               	skipnz
  5397  055E  0AF2               	incf	___ftpack@arg+2,f
  5398  055F  36F2               	lsrf	___ftpack@arg+2,f
  5399  0560  0CF1               	rrf	___ftpack@arg+1,f
  5400  0561  0CF0               	rrf	___ftpack@arg,f
  5401  0562                     l1673:	
  5402  0562  30FF               	movlw	255
  5403  0563  0572               	andwf	___ftpack@arg+2,w
  5404  0564  1903               	btfsc	3,2
  5405  0565  2D6F               	goto	l1677
  5406  0566  2D59               	goto	l1671
  5407  0567                     l1679:	
  5408  0567  3002               	movlw	2
  5409  0568  0273               	subwf	___ftpack@exp,w
  5410  0569  1C03               	btfss	3,0
  5411  056A  2D71               	goto	l727
  5412  056B  03F3               	decf	___ftpack@exp,f
  5413  056C  35F0               	lslf	___ftpack@arg,f
  5414  056D  0DF1               	rlf	___ftpack@arg+1,f
  5415  056E  0DF2               	rlf	___ftpack@arg+2,f
  5416  056F                     l1677:	
  5417  056F  1FF1               	btfss	___ftpack@arg+1,7
  5418  0570  2D67               	goto	l1679
  5419  0571                     l727:	
  5420  0571  1C73               	btfss	___ftpack@exp,0
  5421  0572  13F1               	bcf	___ftpack@arg+1,7
  5422  0573  36F3               	lsrf	___ftpack@exp,f
  5423  0574  0873               	movf	___ftpack@exp,w
  5424  0575  00F7               	movwf	??___ftpack+2
  5425  0576  01F6               	clrf	??___ftpack+1
  5426  0577  01F5               	clrf	??___ftpack
  5427  0578  0875               	movf	??___ftpack,w
  5428  0579  04F0               	iorwf	___ftpack@arg,f
  5429  057A  0876               	movf	??___ftpack+1,w
  5430  057B  04F1               	iorwf	___ftpack@arg+1,f
  5431  057C  0877               	movf	??___ftpack+2,w
  5432  057D  04F2               	iorwf	___ftpack@arg+2,f
  5433  057E  0874               	movf	___ftpack@sign,w
  5434  057F  1D03               	btfss	3,2
  5435  0580  17F2               	bsf	___ftpack@arg+2,7
  5436  0581  0008               	return
  5437  0582                     __end_of___ftpack:	
  5438                           
  5439                           	psect	text27
  5440  0656                     __ptext27:	
  5441 ;; *************** function _ADC_GetConversion *****************
  5442 ;; Defined at:
  5443 ;;		line 109 in file "mcc_generated_files/adc.c"
  5444 ;; Parameters:    Size  Location     Type
  5445 ;;  channel         1    wreg     enum E2664
  5446 ;; Auto vars:     Size  Location     Type
  5447 ;;  channel         1    3[COMMON] enum E2664
  5448 ;; Return value:  Size  Location     Type
  5449 ;;                  2    0[COMMON] unsigned int 
  5450 ;; Registers used:
  5451 ;;		wreg, status,2, status,0
  5452 ;; Tracked objects:
  5453 ;;		On entry : 1D/0
  5454 ;;		On exit  : 1F/1
  5455 ;;		Unchanged: 0/0
  5456 ;; Data sizes:     COMMON   BANK0   BANK1
  5457 ;;      Params:         2       0       0
  5458 ;;      Locals:         1       0       0
  5459 ;;      Temps:          1       0       0
  5460 ;;      Totals:         4       0       0
  5461 ;;Total ram usage:        4 bytes
  5462 ;; Hardware stack levels used:    1
  5463 ;; Hardware stack levels required when called:    3
  5464 ;; This function calls:
  5465 ;;		Nothing
  5466 ;; This function is called by:
  5467 ;;		_ReadainVBatt
  5468 ;;		_ReadPHVVoltage
  5469 ;; This function uses a non-reentrant model
  5470 ;;
  5471                           
  5472                           
  5473                           ;psect for function _ADC_GetConversion
  5474  0656                     _ADC_GetConversion:	
  5475                           
  5476                           ;incstack = 0
  5477                           ; Regs used in _ADC_GetConversion: [wreg+status,2+status,0]
  5478                           ;ADC_GetConversion@channel stored from wreg
  5479  0656  00F3               	movwf	ADC_GetConversion@channel
  5480                           
  5481                           ;adc.c: 111: ADCON0bits.CHS = channel;
  5482  0657  00F2               	movwf	??_ADC_GetConversion
  5483  0658  0DF2               	rlf	??_ADC_GetConversion,f
  5484  0659  0DF2               	rlf	??_ADC_GetConversion,f
  5485  065A  0021               	movlb	1	; select bank1
  5486  065B  081D               	movf	29,w	;volatile
  5487  065C  0672               	xorwf	??_ADC_GetConversion,w
  5488  065D  3983               	andlw	-125
  5489  065E  0672               	xorwf	??_ADC_GetConversion,w
  5490  065F  009D               	movwf	29	;volatile
  5491                           
  5492                           ;adc.c: 114: ADCON0bits.ADON = 1;
  5493  0660  141D               	bsf	29,0	;volatile
  5494                           
  5495                           ;adc.c: 120: ADCON0bits.GO_nDONE = 1;
  5496                           
  5497                           ;adc.c: 117: _delay((unsigned long)((5)*(31000/4000000.0)));
  5498  0661  0021               	movlb	1	; select bank1
  5499  0662  149D               	bsf	29,1	;volatile
  5500  0663                     l29:	
  5501                           ;adc.c: 123: while (ADCON0bits.GO_nDONE) {
  5502                           
  5503  0663  189D               	btfsc	29,1	;volatile
  5504  0664  2E63               	goto	l29
  5505                           
  5506                           ;adc.c: 124: }
  5507                           ;adc.c: 127: return ((ADRESH << 8) + ADRESL);
  5508  0665  081C               	movf	28,w	;volatile
  5509  0666  00F1               	movwf	?_ADC_GetConversion+1
  5510  0667  01F0               	clrf	?_ADC_GetConversion
  5511  0668  081B               	movf	27,w	;volatile
  5512  0669  07F0               	addwf	?_ADC_GetConversion,f
  5513  066A  1803               	skipnc
  5514  066B  0AF1               	incf	?_ADC_GetConversion+1,f
  5515  066C  0008               	return
  5516  066D                     __end_of_ADC_GetConversion:	
  5517                           
  5518                           	psect	text28
  5519  0695                     __ptext28:	
  5520 ;; *************** function _ImAliveManage *****************
  5521 ;; Defined at:
  5522 ;;		line 491 in file "main_0.c"
  5523 ;; Parameters:    Size  Location     Type
  5524 ;;		None
  5525 ;; Auto vars:     Size  Location     Type
  5526 ;;		None
  5527 ;; Return value:  Size  Location     Type
  5528 ;;		None               void
  5529 ;; Registers used:
  5530 ;;		wreg, status,2, status,0
  5531 ;; Tracked objects:
  5532 ;;		On entry : 1F/0
  5533 ;;		On exit  : 1F/2
  5534 ;;		Unchanged: 0/0
  5535 ;; Data sizes:     COMMON   BANK0   BANK1
  5536 ;;      Params:         0       0       0
  5537 ;;      Locals:         0       0       0
  5538 ;;      Temps:          0       0       0
  5539 ;;      Totals:         0       0       0
  5540 ;;Total ram usage:        0 bytes
  5541 ;; Hardware stack levels used:    1
  5542 ;; Hardware stack levels required when called:    3
  5543 ;; This function calls:
  5544 ;;		Nothing
  5545 ;; This function is called by:
  5546 ;;		_main
  5547 ;; This function uses a non-reentrant model
  5548 ;;
  5549                           
  5550                           
  5551                           ;psect for function _ImAliveManage
  5552  0695                     _ImAliveManage:	
  5553                           
  5554                           ;main_0.c: 503: if (ucIAmAliveON < 2)
  5555                           
  5556                           ;incstack = 0
  5557                           ; Regs used in _ImAliveManage: [wreg+status,2+status,0]
  5558  0695  3002               	movlw	2
  5559  0696  0262               	subwf	_ucIAmAliveON,w
  5560  0697  1803               	skipnc
  5561  0698  2E9D               	goto	l2283
  5562                           
  5563                           ;main_0.c: 504: {
  5564                           ;main_0.c: 505: ucIAmAliveON++;
  5565  0699  0AE2               	incf	_ucIAmAliveON,f
  5566  069A  0022               	movlb	2	; select bank2
  5567  069B  178E               	bsf	14,7	;volatile
  5568  069C  0008               	return
  5569  069D                     l2283:	
  5570                           
  5571                           ;main_0.c: 508: else if (ucIAmAliveOFF < 6)
  5572  069D  3006               	movlw	6
  5573  069E  0261               	subwf	_ucIAmAliveOFF,w
  5574  069F  1803               	skipnc
  5575  06A0  2EA5               	goto	l2289
  5576  06A1                     l2285:	
  5577                           
  5578                           ;main_0.c: 509: {
  5579                           ;main_0.c: 510: ucIAmAliveOFF++;
  5580  06A1  0AE1               	incf	_ucIAmAliveOFF,f
  5581  06A2  0022               	movlb	2	; select bank2
  5582  06A3  138E               	bcf	14,7	;volatile
  5583  06A4  0008               	return
  5584  06A5                     l2289:	
  5585                           
  5586                           ;main_0.c: 513: else
  5587                           ;main_0.c: 514: {
  5588                           ;main_0.c: 515: ucIAmAliveON=0;
  5589  06A5  01E2               	clrf	_ucIAmAliveON
  5590                           
  5591                           ;main_0.c: 516: ucIAmAliveOFF=1;
  5592  06A6  01E1               	clrf	_ucIAmAliveOFF
  5593  06A7  2EA1               	goto	l2285
  5594  06A8                     __end_of_ImAliveManage:	
  5595                           
  5596                           	psect	intentry
  5597  0004                     __pintentry:	
  5598 ;; *************** function _INTERRUPT_InterruptManager *****************
  5599 ;; Defined at:
  5600 ;;		line 52 in file "mcc_generated_files/interrupt_manager.c"
  5601 ;; Parameters:    Size  Location     Type
  5602 ;;		None
  5603 ;; Auto vars:     Size  Location     Type
  5604 ;;		None
  5605 ;; Return value:  Size  Location     Type
  5606 ;;		None               void
  5607 ;; Registers used:
  5608 ;;		wreg, status,2, status,0, pclath, cstack
  5609 ;; Tracked objects:
  5610 ;;		On entry : 0/0
  5611 ;;		On exit  : 18/0
  5612 ;;		Unchanged: 0/0
  5613 ;; Data sizes:     COMMON   BANK0   BANK1
  5614 ;;      Params:         0       0       0
  5615 ;;      Locals:         0       0       0
  5616 ;;      Temps:          0       0       0
  5617 ;;      Totals:         0       0       0
  5618 ;;Total ram usage:        0 bytes
  5619 ;; Hardware stack levels used:    1
  5620 ;; Hardware stack levels required when called:    2
  5621 ;; This function calls:
  5622 ;;		_PIN_MANAGER_IOC
  5623 ;;		_TMR1_ISR
  5624 ;; This function is called by:
  5625 ;;		Interrupt level 1
  5626 ;; This function uses a non-reentrant model
  5627 ;;
  5628                           
  5629  0004                     _INTERRUPT_InterruptManager:	
  5630                           
  5631                           ;incstack = 0
  5632                           ; Regs used in _INTERRUPT_InterruptManager: [wreg+status,2+status,0+pclath+cstack]
  5633  0004  3180               	pagesel	$
  5634                           
  5635                           ;interrupt_manager.c: 54: if (INTCONbits.IOCIE == 1 && INTCONbits.IOCIF == 1) {
  5636  0005  198B               	btfsc	11,3	;volatile
  5637  0006  1C0B               	btfss	11,0	;volatile
  5638  0007  280B               	goto	i1l150
  5639                           
  5640                           ;interrupt_manager.c: 55: PIN_MANAGER_IOC();
  5641  0008  2681               	fcall	_PIN_MANAGER_IOC
  5642                           
  5643                           ;interrupt_manager.c: 58: INTCONbits.IOCIF = 0;
  5644  0009  100B               	bcf	11,0	;volatile
  5645                           
  5646                           ;interrupt_manager.c: 59: } else if (PIE1bits.TMR1IE == 1 && PIR1bits.TMR1IF == 1) {
  5647  000A  0009               	retfie
  5648  000B                     i1l150:	
  5649  000B  0021               	movlb	1	; select bank1
  5650  000C  1C11               	btfss	17,0	;volatile
  5651  000D  0009               	retfie
  5652  000E  0020               	movlb	0	; select bank0
  5653  000F  1C11               	btfss	17,0	;volatile
  5654  0010  0009               	retfie
  5655                           
  5656                           ;interrupt_manager.c: 60: TMR1_ISR();
  5657  0011  2707               	fcall	_TMR1_ISR
  5658                           
  5659                           ;interrupt_manager.c: 61: } else {
  5660  0012  0009               	retfie
  5661  0013                     __end_of_INTERRUPT_InterruptManager:	
  5662                           
  5663                           	psect	text30
  5664  0707                     __ptext30:	
  5665 ;; *************** function _TMR1_ISR *****************
  5666 ;; Defined at:
  5667 ;;		line 141 in file "mcc_generated_files/tmr1.c"
  5668 ;; Parameters:    Size  Location     Type
  5669 ;;		None
  5670 ;; Auto vars:     Size  Location     Type
  5671 ;;		None
  5672 ;; Return value:  Size  Location     Type
  5673 ;;		None               void
  5674 ;; Registers used:
  5675 ;;		wreg, status,2, status,0, pclath, cstack
  5676 ;; Tracked objects:
  5677 ;;		On entry : 1F/0
  5678 ;;		On exit  : 1F/0
  5679 ;;		Unchanged: 0/0
  5680 ;; Data sizes:     COMMON   BANK0   BANK1
  5681 ;;      Params:         0       0       0
  5682 ;;      Locals:         0       0       0
  5683 ;;      Temps:          0       0       0
  5684 ;;      Totals:         0       0       0
  5685 ;;Total ram usage:        0 bytes
  5686 ;; Hardware stack levels used:    1
  5687 ;; Hardware stack levels required when called:    1
  5688 ;; This function calls:
  5689 ;;		_TMR1_CallBack
  5690 ;; This function is called by:
  5691 ;;		_INTERRUPT_InterruptManager
  5692 ;; This function uses a non-reentrant model
  5693 ;;
  5694                           
  5695                           
  5696                           ;psect for function _TMR1_ISR
  5697  0707                     _TMR1_ISR:	
  5698                           
  5699                           ;tmr1.c: 144: PIR1bits.TMR1IF = 0;
  5700                           
  5701                           ;incstack = 0
  5702                           ; Regs used in _TMR1_ISR: [wreg+status,2+status,0+pclath+cstack]
  5703  0707  1011               	bcf	17,0	;volatile
  5704                           
  5705                           ;tmr1.c: 146: TMR1H = (timer1ReloadVal >> 8);
  5706  0708  0865               	movf	_timer1ReloadVal+1,w	;volatile
  5707  0709  0097               	movwf	23	;volatile
  5708                           
  5709                           ;tmr1.c: 147: TMR1L = timer1ReloadVal;
  5710  070A  0864               	movf	_timer1ReloadVal,w	;volatile
  5711  070B  0096               	movwf	22	;volatile
  5712                           
  5713                           ;tmr1.c: 151: TMR1_CallBack();
  5714  070C  272A               	fcall	_TMR1_CallBack
  5715                           
  5716                           ;tmr1.c: 153: bInterrupted=1;
  5717  070D  14E7               	bsf	_bInterrupted/(0+8),_bInterrupted& (0+7)
  5718  070E  0008               	return
  5719  070F                     __end_of_TMR1_ISR:	
  5720                           
  5721                           	psect	text31
  5722  072A                     __ptext31:	
  5723 ;; *************** function _TMR1_CallBack *****************
  5724 ;; Defined at:
  5725 ;;		line 157 in file "mcc_generated_files/tmr1.c"
  5726 ;; Parameters:    Size  Location     Type
  5727 ;;		None
  5728 ;; Auto vars:     Size  Location     Type
  5729 ;;		None
  5730 ;; Return value:  Size  Location     Type
  5731 ;;		None               void
  5732 ;; Registers used:
  5733 ;;		None
  5734 ;; Tracked objects:
  5735 ;;		On entry : 1F/0
  5736 ;;		On exit  : 1F/0
  5737 ;;		Unchanged: 1F/0
  5738 ;; Data sizes:     COMMON   BANK0   BANK1
  5739 ;;      Params:         0       0       0
  5740 ;;      Locals:         0       0       0
  5741 ;;      Temps:          0       0       0
  5742 ;;      Totals:         0       0       0
  5743 ;;Total ram usage:        0 bytes
  5744 ;; Hardware stack levels used:    1
  5745 ;; This function calls:
  5746 ;;		Nothing
  5747 ;; This function is called by:
  5748 ;;		_TMR1_ISR
  5749 ;; This function uses a non-reentrant model
  5750 ;;
  5751                           
  5752                           
  5753                           ;psect for function _TMR1_CallBack
  5754  072A                     _TMR1_CallBack:	
  5755                           
  5756                           ;incstack = 0
  5757                           ; Regs used in _TMR1_CallBack: []
  5758  072A  0008               	return
  5759  072B                     __end_of_TMR1_CallBack:	
  5760                           
  5761                           	psect	text32
  5762  0681                     __ptext32:	
  5763 ;; *************** function _PIN_MANAGER_IOC *****************
  5764 ;; Defined at:
  5765 ;;		line 82 in file "mcc_generated_files/pin_manager.c"
  5766 ;; Parameters:    Size  Location     Type
  5767 ;;		None
  5768 ;; Auto vars:     Size  Location     Type
  5769 ;;		None
  5770 ;; Return value:  Size  Location     Type
  5771 ;;		None               void
  5772 ;; Registers used:
  5773 ;;		wreg, status,2, status,0
  5774 ;; Tracked objects:
  5775 ;;		On entry : 0/0
  5776 ;;		On exit  : 1F/7
  5777 ;;		Unchanged: 0/0
  5778 ;; Data sizes:     COMMON   BANK0   BANK1
  5779 ;;      Params:         0       0       0
  5780 ;;      Locals:         0       0       0
  5781 ;;      Temps:          0       0       0
  5782 ;;      Totals:         0       0       0
  5783 ;;Total ram usage:        0 bytes
  5784 ;; Hardware stack levels used:    1
  5785 ;; This function calls:
  5786 ;;		Nothing
  5787 ;; This function is called by:
  5788 ;;		_INTERRUPT_InterruptManager
  5789 ;; This function uses a non-reentrant model
  5790 ;;
  5791                           
  5792                           
  5793                           ;psect for function _PIN_MANAGER_IOC
  5794  0681                     _PIN_MANAGER_IOC:	
  5795                           
  5796                           ;pin_manager.c: 83: if (((IOCAN2 == 1) || (IOCAP2 == 1)) && (IOCAF2 == 1)) {
  5797                           
  5798                           ;incstack = 0
  5799                           ; Regs used in _PIN_MANAGER_IOC: [wreg+status,2+status,0]
  5800  0681  0027               	movlb	7	; select bank7
  5801  0682  1912               	btfsc	18,2	;volatile
  5802  0683  2E86               	goto	i1l134
  5803  0684  1D11               	btfss	17,2	;volatile
  5804  0685  0008               	return
  5805  0686                     i1l134:	
  5806  0686  1D13               	btfss	19,2	;volatile
  5807  0687  0008               	return
  5808                           
  5809                           ;pin_manager.c: 85: pulses++;
  5810  0688  3001               	movlw	1
  5811  0689  0020               	movlb	0	; select bank0
  5812  068A  07D9               	addwf	_pulses,f
  5813  068B  3000               	movlw	0
  5814  068C  3DDA               	addwfc	_pulses+1,f
  5815  068D  3DDB               	addwfc	_pulses+2,f
  5816  068E  3DDC               	addwfc	_pulses+3,f
  5817  068F  3080               	movlw	128
  5818  0690  0022               	movlb	2	; select bank2
  5819  0691  068E               	xorwf	14,f
  5820                           
  5821                           ;pin_manager.c: 88: IOCAF2 = 0;
  5822  0692  0027               	movlb	7	; select bank7
  5823  0693  1113               	bcf	19,2	;volatile
  5824  0694  0008               	return
  5825  0695                     __end_of_PIN_MANAGER_IOC:	
  5826  007E                     btemp	set	126	;btemp
  5827  007E                     wtemp	set	126
  5828  007E                     wtemp0	set	126
  5829  0080                     wtemp1	set	128
  5830  0082                     wtemp2	set	130
  5831  0084                     wtemp3	set	132
  5832  0086                     wtemp4	set	134
  5833  0088                     wtemp5	set	136
  5834  007F                     wtemp6	set	127
  5835  007E                     ttemp	set	126
  5836  007E                     ttemp0	set	126
  5837  0081                     ttemp1	set	129
  5838  0084                     ttemp2	set	132
  5839  0087                     ttemp3	set	135
  5840  007F                     ttemp4	set	127
  5841  007E                     ltemp	set	126
  5842  007E                     ltemp0	set	126
  5843  0082                     ltemp1	set	130
  5844  0086                     ltemp2	set	134
  5845  0080                     ltemp3	set	128


Data Sizes:
    Strings     0
    Constant    0
    Data        0
    BSS         11
    Persistent  3
    Stack       0

Auto Spaces:
    Space          Size  Autos    Used
    COMMON           14     14      14
    BANK0            80     57      72
    BANK1            32      0       0

Pointer List with Targets:

    None.

Critical Paths under _main in COMMON

    _SolenoidManage->___aldiv
    _ReadainVBatt->___ftdiv
    _ReadainVBatt->___ftmul
    _ReadPHVVoltage->___ftdiv
    _ReadPHVVoltage->___ftmul
    ___lwtoft->___ftpack
    ___ftmul->___ftpack
    ___ftdiv->___ftpack
    ___ftadd->___ftmul

Critical Paths under _INTERRUPT_InterruptManager in COMMON

    None.

Critical Paths under _main in BANK0

    _main->_SolenoidManage
    _WakeUpZigbee->___ftge
    _SolenoidManage->___ftge
    _ReadainVBatt->___ftadd
    _LEDsManage->___ftge
    ___ftge->_ReadPHVVoltage
    _ReadPHVVoltage->___ftadd
    ___ftadd->___ftmul

Critical Paths under _INTERRUPT_InterruptManager in BANK0

    None.

Critical Paths under _main in BANK1

    None.

Critical Paths under _INTERRUPT_InterruptManager in BANK1

    None.

Call Graph Tables:

 ---------------------------------------------------------------------------------
 (Depth) Function   	        Calls       Base Space   Used Autos Params    Refs
 ---------------------------------------------------------------------------------
 (0) _main                                                 1     1      0   28632
                                             56 BANK0      1     1      0
                      _ImAliveManage
                         _LEDsManage
                 _PWM1_LoadDutyValue
                  _SYSTEM_Initialize
                     _SolenoidManage
                       _WakeUpZigbee
 ---------------------------------------------------------------------------------
 (1) _WakeUpZigbee                                         0     0      0    9125
                     _ReadPHVVoltage
                        _ResetZigbee
                             ___ftge
 ---------------------------------------------------------------------------------
 (1) _SolenoidManage                                      22    22      0   10218
                                             34 BANK0     22    22      0
                       _ReadainVBatt
                        _ResetZigbee
                            ___aldiv
                             ___ftge
 ---------------------------------------------------------------------------------
 (2) ___aldiv                                             14     6      8     472
                                              0 COMMON    14     6      8
 ---------------------------------------------------------------------------------
 (2) _ResetZigbee                                          1     1      0      46
                                              0 COMMON     1     1      0
 ---------------------------------------------------------------------------------
 (2) _ReadainVBatt                                         7     4      3    8169
                                             21 BANK0      7     4      3
                  _ADC_GetConversion
                            ___ftadd
                            ___ftdiv
                            ___ftmul
                           ___lwtoft
 ---------------------------------------------------------------------------------
 (1) _SYSTEM_Initialize                                    0     0      0       0
                     _ADC_Initialize
                     _FVR_Initialize
              _OSCILLATOR_Initialize
             _PIN_MANAGER_Initialize
                    _PWM1_Initialize
                    _PWM2_Initialize
                    _TMR0_Initialize
                    _TMR1_Initialize
                    _TMR2_Initialize
 ---------------------------------------------------------------------------------
 (2) _TMR2_Initialize                                      0     0      0       0
                    _TMR2_StartTimer
 ---------------------------------------------------------------------------------
 (3) _TMR2_StartTimer                                      0     0      0       0
 ---------------------------------------------------------------------------------
 (2) _TMR1_Initialize                                      0     0      0       0
                    _TMR1_StartTimer
 ---------------------------------------------------------------------------------
 (3) _TMR1_StartTimer                                      0     0      0       0
 ---------------------------------------------------------------------------------
 (2) _TMR0_Initialize                                      0     0      0       0
 ---------------------------------------------------------------------------------
 (2) _PWM2_Initialize                                      0     0      0       0
 ---------------------------------------------------------------------------------
 (2) _PWM1_Initialize                                      0     0      0       0
 ---------------------------------------------------------------------------------
 (2) _PIN_MANAGER_Initialize                               0     0      0       0
 ---------------------------------------------------------------------------------
 (2) _OSCILLATOR_Initialize                                0     0      0       0
 ---------------------------------------------------------------------------------
 (2) _FVR_Initialize                                       0     0      0       0
 ---------------------------------------------------------------------------------
 (2) _ADC_Initialize                                       0     0      0       0
 ---------------------------------------------------------------------------------
 (1) _PWM1_LoadDutyValue                                   4     2      2      87
                                              0 COMMON     4     2      2
 ---------------------------------------------------------------------------------
 (1) _LEDsManage                                           6     6      0    9156
                                             34 BANK0      6     6      0
                     _ReadPHVVoltage
                             ___ftge
 ---------------------------------------------------------------------------------
 (2) ___ftge                                               6     0      6     910
                                             28 BANK0      6     0      6
                     _ReadPHVVoltage (ARG)
 ---------------------------------------------------------------------------------
 (2) _ReadPHVVoltage                                       7     4      3    8169
                                             21 BANK0      7     4      3
                  _ADC_GetConversion
                            ___ftadd
                            ___ftdiv
                            ___ftmul
                           ___lwtoft
 ---------------------------------------------------------------------------------
 (3) ___lwtoft                                             3     0      3    1485
                                              8 COMMON     3     0      3
                  _ADC_GetConversion (ARG)
                           ___ftpack
 ---------------------------------------------------------------------------------
 (3) ___ftmul                                             15     9      6    2049
                                              8 COMMON     6     0      6
                                              0 BANK0      9     9      0
                           ___ftpack
 ---------------------------------------------------------------------------------
 (3) ___ftdiv                                             15     9      6    1831
                                              8 COMMON     6     0      6
                                              0 BANK0      9     9      0
                           ___ftpack
 ---------------------------------------------------------------------------------
 (3) ___ftadd                                             12     6      6    2621
                                              9 BANK0     12     6      6
                  _ADC_GetConversion (ARG)
                            ___ftmul (ARG)
                           ___ftpack
                           ___lwtoft (ARG)
 ---------------------------------------------------------------------------------
 (4) ___ftpack                                             8     3      5    1377
                                              0 COMMON     8     3      5
 ---------------------------------------------------------------------------------
 (3) _ADC_GetConversion                                    4     2      2      22
                                              0 COMMON     4     2      2
 ---------------------------------------------------------------------------------
 (1) _ImAliveManage                                        0     0      0       0
 ---------------------------------------------------------------------------------
 Estimated maximum stack depth 4
 ---------------------------------------------------------------------------------
 (Depth) Function   	        Calls       Base Space   Used Autos Params    Refs
 ---------------------------------------------------------------------------------
 (5) _INTERRUPT_InterruptManager                           0     0      0       0
                    _PIN_MANAGER_IOC
                           _TMR1_ISR
 ---------------------------------------------------------------------------------
 (6) _TMR1_ISR                                             0     0      0       0
                      _TMR1_CallBack
 ---------------------------------------------------------------------------------
 (7) _TMR1_CallBack                                        0     0      0       0
 ---------------------------------------------------------------------------------
 (6) _PIN_MANAGER_IOC                                      0     0      0       0
 ---------------------------------------------------------------------------------
 Estimated maximum stack depth 7
 ---------------------------------------------------------------------------------

 Call Graph Graphs:

 _main (ROOT)
   _ImAliveManage
   _LEDsManage
     _ReadPHVVoltage
       _ADC_GetConversion
       ___ftadd
         _ADC_GetConversion (ARG)
         ___ftmul (ARG)
           ___ftpack
         ___ftpack (ARG)
         ___lwtoft (ARG)
           _ADC_GetConversion (ARG)
           ___ftpack (ARG)
       ___ftdiv
         ___ftpack
       ___ftmul
         ___ftpack
       ___lwtoft
         _ADC_GetConversion (ARG)
         ___ftpack (ARG)
     ___ftge
       _ReadPHVVoltage (ARG)
         _ADC_GetConversion
         ___ftadd
           _ADC_GetConversion (ARG)
           ___ftmul (ARG)
             ___ftpack
           ___ftpack (ARG)
           ___lwtoft (ARG)
             _ADC_GetConversion (ARG)
             ___ftpack (ARG)
         ___ftdiv
           ___ftpack
         ___ftmul
           ___ftpack
         ___lwtoft
           _ADC_GetConversion (ARG)
           ___ftpack (ARG)
   _PWM1_LoadDutyValue
   _SYSTEM_Initialize
     _ADC_Initialize
     _FVR_Initialize
     _OSCILLATOR_Initialize
     _PIN_MANAGER_Initialize
     _PWM1_Initialize
     _PWM2_Initialize
     _TMR0_Initialize
     _TMR1_Initialize
       _TMR1_StartTimer
     _TMR2_Initialize
       _TMR2_StartTimer
   _SolenoidManage
     _ReadainVBatt
       _ADC_GetConversion
       ___ftadd
         _ADC_GetConversion (ARG)
         ___ftmul (ARG)
           ___ftpack
         ___ftpack (ARG)
         ___lwtoft (ARG)
           _ADC_GetConversion (ARG)
           ___ftpack (ARG)
       ___ftdiv
         ___ftpack
       ___ftmul
         ___ftpack
       ___lwtoft
         _ADC_GetConversion (ARG)
         ___ftpack (ARG)
     _ResetZigbee
     ___aldiv
     ___ftge
       _ReadPHVVoltage (ARG)
         _ADC_GetConversion
         ___ftadd
           _ADC_GetConversion (ARG)
           ___ftmul (ARG)
             ___ftpack
           ___ftpack (ARG)
           ___lwtoft (ARG)
             _ADC_GetConversion (ARG)
             ___ftpack (ARG)
         ___ftdiv
           ___ftpack
         ___ftmul
           ___ftpack
         ___lwtoft
           _ADC_GetConversion (ARG)
           ___ftpack (ARG)
   _WakeUpZigbee
     _ReadPHVVoltage
       _ADC_GetConversion
       ___ftadd
         _ADC_GetConversion (ARG)
         ___ftmul (ARG)
           ___ftpack
         ___ftpack (ARG)
         ___lwtoft (ARG)
           _ADC_GetConversion (ARG)
           ___ftpack (ARG)
       ___ftdiv
         ___ftpack
       ___ftmul
         ___ftpack
       ___lwtoft
         _ADC_GetConversion (ARG)
         ___ftpack (ARG)
     _ResetZigbee
     ___ftge
       _ReadPHVVoltage (ARG)
         _ADC_GetConversion
         ___ftadd
           _ADC_GetConversion (ARG)
           ___ftmul (ARG)
             ___ftpack
           ___ftpack (ARG)
           ___lwtoft (ARG)
             _ADC_GetConversion (ARG)
             ___ftpack (ARG)
         ___ftdiv
           ___ftpack
         ___ftmul
           ___ftpack
         ___lwtoft
           _ADC_GetConversion (ARG)
           ___ftpack (ARG)

 _INTERRUPT_InterruptManager (ROOT)
   _PIN_MANAGER_IOC
   _TMR1_ISR
     _TMR1_CallBack

 Address spaces:
Name               Size   Autos  Total    Cost      Usage
BIGRAM              70      0       0       0        0.0%
NULL                 0      0       0       0        0.0%
CODE                 0      0       0       0        0.0%
BITCOMMON            E      0       0       1        0.0%
BITSFR0              0      0       0       1        0.0%
SFR0                 0      0       0       1        0.0%
COMMON               E      E       E       2      100.0%
BITSFR1              0      0       0       2        0.0%
SFR1                 0      0       0       2        0.0%
BITSFR2              0      0       0       3        0.0%
SFR2                 0      0       0       3        0.0%
STACK                0      0       0       3        0.0%
BITSFR3              0      0       0       4        0.0%
SFR3                 0      0       0       4        0.0%
ABS                  0      0      56       4        0.0%
BITBANK0            50      0       1       5        1.3%
BITSFR4              0      0       0       5        0.0%
SFR4                 0      0       0       5        0.0%
BANK0               50     39      48       6       90.0%
BITSFR5              0      0       0       6        0.0%
SFR5                 0      0       0       6        0.0%
BITBANK1            20      0       0       7        0.0%
BITSFR6              0      0       0       7        0.0%
SFR6                 0      0       0       7        0.0%
BANK1               20      0       0       8        0.0%
BITSFR7              0      0       0       8        0.0%
SFR7                 0      0       0       8        0.0%
BITSFR8              0      0       0       9        0.0%
SFR8                 0      0       0       9        0.0%
DATA                 0      0      56       9        0.0%
BITSFR9              0      0       0      10        0.0%
SFR9                 0      0       0      10        0.0%
BITSFR10             0      0       0      11        0.0%
SFR10                0      0       0      11        0.0%
BITSFR11             0      0       0      12        0.0%
SFR11                0      0       0      12        0.0%
BITSFR12             0      0       0      13        0.0%
SFR12                0      0       0      13        0.0%
BITSFR13             0      0       0      14        0.0%
SFR13                0      0       0      14        0.0%
BITSFR14             0      0       0      15        0.0%
SFR14                0      0       0      15        0.0%
BITSFR15             0      0       0      16        0.0%
SFR15                0      0       0      16        0.0%
BITSFR16             0      0       0      17        0.0%
SFR16                0      0       0      17        0.0%
BITSFR17             0      0       0      18        0.0%
SFR17                0      0       0      18        0.0%
BITSFR18             0      0       0      19        0.0%
SFR18                0      0       0      19        0.0%
BITSFR19             0      0       0      20        0.0%
SFR19                0      0       0      20        0.0%
BITSFR20             0      0       0      21        0.0%
SFR20                0      0       0      21        0.0%
BITSFR21             0      0       0      22        0.0%
SFR21                0      0       0      22        0.0%
BITSFR22             0      0       0      23        0.0%
SFR22                0      0       0      23        0.0%
BITSFR23             0      0       0      24        0.0%
SFR23                0      0       0      24        0.0%
BITSFR24             0      0       0      25        0.0%
SFR24                0      0       0      25        0.0%
BITSFR25             0      0       0      26        0.0%
SFR25                0      0       0      26        0.0%
BITSFR26             0      0       0      27        0.0%
SFR26                0      0       0      27        0.0%
BITSFR27             0      0       0      28        0.0%
SFR27                0      0       0      28        0.0%
BITSFR28             0      0       0      29        0.0%
SFR28                0      0       0      29        0.0%
BITSFR29             0      0       0      30        0.0%
SFR29                0      0       0      30        0.0%
BITSFR30             0      0       0      31        0.0%
SFR30                0      0       0      31        0.0%
BITSFR31             0      0       0      32        0.0%
SFR31                0      0       0      32        0.0%


Microchip Technology PIC Macro Assembler V1.34 build -361300703 
Symbol Table                                                                                   Thu Jun 25 15:32:05 2015

                                         pc 0002               SolenoidManage@timeForStopping 004F  
                               __CFG_CP$OFF 0000                                          l29 0663  
                    __end_of_FVR_Initialize 0725                             _timer0ReloadVal 0066  
                              ___ftadd@exp1 0034                                ___ftadd@exp2 0033  
                            _ReadPHVVoltage 039B                                ___ftadd@sign 0032  
                                       l512 0607                                         l352 0597  
                                       l434 0123                                         l451 016E  
                                       l372 0033                                         l356 05A1  
                                       l509 0604                                         l357 05B0  
                                       l534 06A8                                         l614 041C  
                                       l454 01A0                                         l358 05AC  
                                       l471 0250                                         l391 007E  
                                       l359 05AB                                         l536 06AB  
                                       l480 0243                                         l368 002E  
                                       l457 01A3                                         l378 0051  
                                       l715 054C                                         l483 0246  
                                       l467 01B4                                         l459 01A5  
                                       l396 0089                                         l388 0066  
                                       l485 0248                                         l477 0211  
                                       l727 0571                                         l751 02EC  
                                       l488 0256                                         l769 0504  
                                       _RA4 0064                                         _RB4 006C  
                                       _RC3 0073                                         _RB5 006D  
                                       _PR2 001B                             _timer1ReloadVal 0064  
                           _TMR2_Initialize 070F                                __CFG_BORV$LO 0000  
                               ?_LEDsManage 0070                                        S2367 06D8  
                              __CFG_LVP$OFF 0000                                ___ftdiv@cntr 0023  
                              ___ftdiv@sign 0028                                        l2031 0461  
                                      l2103 0068                                        l2009 042B  
                                      l2201 01BD                                        l2113 0091  
                                      l2105 0080                                        l2043 05C2  
                                      l2035 046F                                        l2027 045B  
                                      l2019 043E                                        l2211 01E8  
                                      l2109 0086                                        l2047 05D1  
                                      l2217 0213                                        l2161 0127  
                                      l2129 00BB                                        l2219 0223  
                                      l2155 0114                                        l2139 00D9  
                                      l1701 0725                                        l2229 025B  
                                      l2149 00FE                                        l2237 0269  
                                      l2191 01AA                                        l2183 0151  
                                      l2087 004D                                        l2271 061C  
                                      l1713 029E                                        l2169 011B  
                                      l2097 005C                                        l2283 069D  
                                      l1731 02BB                                        l1811 052D  
                                      l2187 0170                                        l2285 06A1  
                                      l1741 02D2                                        l1709 0297  
                                      l1805 0517                                        l2197 01B6  
                                      l2189 0180                                        l1671 0559  
                                      l1751 02E8                                        l1743 02D6  
                                      l1719 02AD                                        l1823 0489  
                                      l2199 01BA                                        l2289 06A5  
                                      l1673 0562                                        l1737 02C9  
                                      l1667 0550                                        l1763 0302  
                                      l1739 02CD                                        l1827 049A  
                                      l1677 056F                                        l1669 0554  
                                      l1757 02F7                                        l1749 02E4  
                                      l1861 04C8                                        l1845 04AE  
                                      l1941 06E3                                        l1679 0567  
                                      l1775 0316                                        l1783 04F3  
                                      l1857 04C0                                        l1849 04B6  
                                      l1699 0728                                        l1957 032E  
                                      l1987 039F                                __CFG_WDTE$ON 0000  
                   __end_of_PWM1_Initialize 06FF                                        u1315 0524  
                                      _LATA 010C                                        _LATB 010D  
                                      _LATC 010E                                        u1615 00B3  
                                      u1465 0450                                        u1705 014B  
                                      u1805 01F2                                        u1655 00F1  
                                      u1775 01C9                                        u1695 013F  
                                      u1785 01D7                                        u1795 01E3  
                                      _TMR0 0015                                        _TMR2 001A  
                                      _WPUA 020C                                        _WPUB 020D  
                              __CFG_WRT$OFF 0000                            ??_SolenoidManage 0042  
                                      _main 0582                                ___ftpack@arg 0070  
                              ___ftpack@exp 0073                                        fsr0l 0004  
                                      btemp 007E                               __CFG_BOREN$ON 0000  
                                      ltemp 007E                                        start 0013  
                                      ttemp 007E                                        wtemp 007E  
                             __CFG_MCLRE$ON 0000                                ___ftmul@cntr 0027  
                              ___ftmul@sign 0028                               __CFG_LPBOR$ON 0000  
                   __end_of_PWM2_Initialize 071C                     __end_of_TMR0_Initialize 06EE  
                    __end_of_ReadPHVVoltage 040C                             ?_FVR_Initialize 0070  
            __size_of_OSCILLATOR_Initialize 0005               __end_of_OSCILLATOR_Initialize 0721  
                           __end_of___aldiv 0478                                       ?_main 0070  
                           __end_of___ftadd 0329                             __end_of___ftdiv 0544  
                           _TMR1_StartTimer 0725                             __end_of___ftmul 04E2  
                                     _T1CON 0018                                       _T2CON 001C  
                                     _LATC1 0871                                       _LATA5 0865  
                                     _LATC2 0872                                       _LATC3 0873  
                                     _LATC4 0874                                       _LATB6 086E  
                                     _LATC5 0875                                       _LATB7 086F  
                                     _LATC7 0877                                       i1l134 0686  
                                     i1l150 000B                                       _TMR1H 0017  
                                     _TMR1L 0016                                       _TRISA 008C  
                                     _TRISB 008D                                       _TRISC 008E  
                          __end_of_TMR1_ISR 070F                     __end_of_PIN_MANAGER_IOC 0695  
                             ___ftpack@sign 0074                                       main@m 0058  
                   __end_of_TMR1_Initialize 06D8                               ?_ReadainVBatt 0035  
                                     ltemp0 007E                                       ltemp1 0082  
                                     ltemp2 0086                                       ltemp3 0080  
                                     ttemp0 007E                                       ttemp1 0081  
                                     ttemp2 0084                                       ttemp3 0087  
                                     ttemp4 007F                                       status 0003  
                                     wtemp0 007E                                       wtemp1 0080  
                                     wtemp2 0082                                       wtemp3 0084  
                                     wtemp4 0086                                       wtemp5 0088  
                                     wtemp6 007F                             _TMR2_StartTimer 0728  
                           __initialization 0014                                __end_of_main 05B3  
                       __size_of_LEDsManage 002B                     __end_of_TMR2_Initialize 0716  
                   LEDsManage@intLedsOnTime 0046                             ?_ReadPHVVoltage 0035  
               ?_INTERRUPT_InterruptManager 0070                                      ??_main 007E  
                         _ulgCyclesForReset 005D                             ReadPHVVoltage@k 0038  
                                    _ADCON0 009D                                      _ADCON1 009E  
                                    _ADCON2 009F                                      _ADRESH 009C  
                                    _ADRESL 009B                                      _APFCON 011D  
                                    _ANSELA 018C                                      _ANSELB 018D  
                                    _ANSELC 018E                            __end_of___ftpack 0582  
                            ??_ReadainVBatt 007E                                      _T1GCON 0019  
                                    _IOCAF2 1C9A                                      _IOCAN2 1C92  
                                    _IOCAP2 1C8A                            ?_PWM1_Initialize 0070  
                                    _FVRCON 0117                               ??_ResetZigbee 0070  
                          __end_of___lwtoft 06C9                                      _OSCCON 0099  
                                    _WDTCON 0097                              __CFG_PWRTE$OFF 0000  
                                    ___ftge 05B3                     __end_of_TMR1_StartTimer 0728  
                                 ??___aldiv 0078                                   ??___ftadd 002F  
                            __CFG_STVREN$ON 0000                                   ??___ftdiv 0020  
                                 ??___ftmul 0020                            ?_TMR0_Initialize 0070  
                          ?_PWM2_Initialize 0070                                      _pulses 0059  
                     ___ftmul@f3_as_product 0024                    ADC_GetConversion@channel 0073  
                   __end_of_TMR2_StartTimer 072A                            ?_PIN_MANAGER_IOC 0070  
                     __end_of_TMR1_CallBack 072B                            ?_TMR1_Initialize 0070  
                         _SYSTEM_Initialize 06EE                     __end_of__initialization 0020  
                                ___ftadd@f1 0029                                  ___ftadd@f2 002C  
                                ___ftge@ff1 003C                                  ___ftge@ff2 003F  
                        ?_SYSTEM_Initialize 0070                                  ___ftdiv@f1 007B  
                                ___ftdiv@f2 0078                                  ___ftdiv@f3 0024  
               PWM1_LoadDutyValue@dutyValue 0070                                  ___ftmul@f1 0078  
                                ___ftmul@f2 007B                         __end_of_ResetZigbee 06B9  
                            __pcstackCOMMON 0070                         ??_SYSTEM_Initialize 0070  
                                 ?_TMR1_ISR 0070          SolenoidManage@timeForDemagnetising 0047  
                        _PWM1_LoadDutyValue 066D                            ?_TMR2_Initialize 0070  
                             ?_WakeUpZigbee 0070                                  ___lwtoft@c 0078  
                            _OPTION_REGbits 0095                         ?_PWM1_LoadDutyValue 0070  
                              ??_LEDsManage 007E                   __end_of_SYSTEM_Initialize 06F7  
                    __size_of_ImAliveManage 0013                                  __pbssBANK0 0059  
                               _bDoNotSleep 0338                        ??_PWM1_LoadDutyValue 0072  
                          ??_FVR_Initialize 0070                                  __pmaintext 0582  
                                   ?___ftge 003C                            ?_TMR1_StartTimer 0070  
                                ??_TMR1_ISR 0070                                  __pintentry 0004  
                        __end_of_LEDsManage 060A                        __end_of_ReadainVBatt 039B  
                            ??_WakeUpZigbee 007E                                   ?___ftpack 0070  
                   __size_of_ADC_Initialize 0008                                   ?___lwtoft 0078  
                                   _OSCSTAT 009A                                     _PWM1DCH 0612  
                                   _PWM1DCL 0611                                     _PWM2DCH 0615  
                                   _PWM2DCL 0614                                     _PWM1CON 0613  
                                   _PWM2CON 0616                                     _VREGCON 0197  
                          ?_TMR2_StartTimer 0070                                _ucIAmAliveON 0062  
                               _ResetZigbee 06A8                             ReadainVBatt@sum 0039  
                          ??_ReadPHVVoltage 007E  SolenoidManage@timeForHighVoltageOnSolenoid 0048  
                                   ___aldiv 040C                             __size_of___ftge 002C  
                                   ___ftadd 0274                               _ImAliveManage 0695  
                                   ___ftdiv 04E2                                     ___ftmul 0478  
                                ??___ftpack 0075                                     __ptext1 060A  
                                   __ptext2 0022                                     __ptext3 040C  
                                   __ptext4 06A8                                     __ptext5 0329  
                                   __ptext6 06EE                                     __ptext7 070F  
                                   __ptext8 0728                                     __ptext9 06C9  
                                ??___lwtoft 007B                                   _T1CONbits 0018  
                     _OSCILLATOR_Initialize 071C                                   _T2CONbits 001C  
                          ___aldiv@dividend 0074                    ??_PIN_MANAGER_Initialize 0070  
                __size_of_SYSTEM_Initialize 0009                        end_of_initialization 0020  
                            ?_ImAliveManage 0070                            ___aldiv@quotient 007A  
                   __size_of_SolenoidManage 0252                            __CFG_FOSC$INTOSC 0000  
           SolenoidManage@timeToSupplyShock 0043                        __end_of_WakeUpZigbee 0630  
                               ___ftdiv@exp 0027                    __size_of_PWM1_Initialize 0008  
                     __size_of_ReadainVBatt 0072                                 ___ftmul@exp 0023  
                            __end_of___ftge 05DF                           __size_of_TMR1_ISR 0008  
                            _ADC_Initialize 06FF                      ?_OSCILLATOR_Initialize 0070  
                             __pbitbssBANK0 0338                         start_initialization 0014  
                  __size_of_PWM2_Initialize 0006                    __size_of_TMR0_Initialize 000B  
           __size_of_PIN_MANAGER_Initialize 0026                                _ReadainVBatt 0329  
                  __size_of_PIN_MANAGER_IOC 0014                             ??_ImAliveManage 0070  
                             ReadainVBatt@k 0038                    __size_of_TMR1_Initialize 000F  
                                  ??___ftge 007E                      __end_of_ADC_Initialize 0707  
                    __size_of_TMR1_CallBack 0001                           __size_of___ftpack 003E  
                LEDsManage@ulgCyclesForLEDs 0042                                   ___latbits 0000  
                         __size_of___lwtoft 0010                               __pcstackBANK0 0020  
                  __size_of_TMR2_Initialize 0007                           ReadPHVVoltage@sum 0039  
                              ?_ResetZigbee 0070                                   __pnvBANK0 0064  
               __size_of_PWM1_LoadDutyValue 0014                      _PIN_MANAGER_Initialize 0630  
                              _ucValveState 0063                                ResetZigbee@k 0070  
                                  ?___aldiv 0070                                    ?___ftadd 0029  
                                  ?___ftdiv 0078                              _SolenoidManage 0022  
                                  ?___ftmul 0078                             ?_ADC_Initialize 0070  
                         ??_PWM1_Initialize 0070                ??_INTERRUPT_InterruptManager 0070  
                                 __pswtext1 06D8                    __size_of_TMR1_StartTimer 0003  
                     __size_of_WakeUpZigbee 0026                               _TMR1_CallBack 072A  
                           ___aldiv@divisor 0070                           ??_TMR0_Initialize 0070  
                         ??_PWM2_Initialize 0070                             ___aldiv@counter 0078  
                                  _PIE1bits 0091                    __size_of_TMR2_StartTimer 0002  
       __size_of_INTERRUPT_InterruptManager 000F                                    _PIR1bits 0011  
                    __end_of_SolenoidManage 0274                                    _TMR1_ISR 0707  
                         ??_PIN_MANAGER_IOC 0070                               _ucIAmAliveOFF 0061  
                         ??_TMR1_Initialize 0070                                  _ADCON0bits 009D  
                              _WakeUpZigbee 060A                     __size_of_FVR_Initialize 0004  
                            ?_TMR1_CallBack 0070                           ??_TMR2_Initialize 0070  
           SolenoidManage@timeForSprinkling 0049                             ?_SolenoidManage 0070  
                         _ADC_GetConversion 0656                     ??_OSCILLATOR_Initialize 0070  
                        ?_ADC_GetConversion 0070                            __size_of___aldiv 006C  
                          __size_of___ftadd 00B5                            __size_of___ftdiv 0062  
                          __size_of___ftmul 006A                                    ___ftpack 0544  
                                  ___lwtoft 06B9                     __size_of_ReadPHVVoltage 0071  
                       ??_ADC_GetConversion 0072                                    __ptext10 0725  
                                  __ptext11 06E3                                    __ptext20 05B3  
                                  __ptext12 0716                                    __ptext21 039B  
                                  __ptext13 06F7                                    __ptext30 0707  
                                  __ptext22 06B9                                    __ptext14 0630  
                                  __ptext31 072A                                    __ptext23 0478  
                                  __ptext15 071C                                    __ptext32 0681  
                                  __ptext24 04E2                                    __ptext16 0721  
                                  __ptext25 0274                                    __ptext17 06FF  
                                  __ptext26 0544                                    __ptext18 066D  
                                  __ptext27 0656                                    __ptext19 05DF  
                                  __ptext28 0695                           ??_TMR1_StartTimer 0070  
                             __size_of_main 0031                        __size_of_ResetZigbee 0011  
                 __end_of_ADC_GetConversion 066D                                _bInterrupted 0339  
                         ??_TMR2_StartTimer 0070          __end_of_INTERRUPT_InterruptManager 0013  
                _INTERRUPT_InterruptManager 0004                                  _INTCONbits 000B  
                                _LEDsManage 05DF                             ??_TMR1_CallBack 0070  
                                  intlevel1 0000                     ?_PIN_MANAGER_Initialize 0070  
         SolenoidManage@timeToCheckingShock 0045                           __CFG_CLKOUTEN$OFF 0000  
                           _PWM1_Initialize 06F7                            ??_ADC_Initialize 0070  
                     __end_of_ImAliveManage 06A8                              _FVR_Initialize 0721  
                                _OPTION_REG 0095                             _TMR0_Initialize 06E3  
                           _PWM2_Initialize 0716                                ___aldiv@sign 0079  
         SolenoidManage@lngPulsesNotWorking 0051              __end_of_PIN_MANAGER_Initialize 0656  
                __end_of_PWM1_LoadDutyValue 0681                             _PIN_MANAGER_IOC 0681  
                  SolenoidManage@flainVBatt 0055              SolenoidManage@lngPulsesWorking 004B  
                __size_of_ADC_GetConversion 0017                             _TMR1_Initialize 06C9  
